ARM GAS  C:\Users\jon\AppData\Local\Temp\ccX9YbKc.s 			page 1


   1              		.syntax unified
   2              		.cpu cortex-m0
   3              		.fpu softvfp
   4              		.eabi_attribute 20, 1
   5              		.eabi_attribute 21, 1
   6              		.eabi_attribute 23, 3
   7              		.eabi_attribute 24, 1
   8              		.eabi_attribute 25, 1
   9              		.eabi_attribute 26, 1
  10              		.eabi_attribute 30, 1
  11              		.eabi_attribute 34, 0
  12              		.eabi_attribute 18, 4
  13              		.thumb
  14              		.syntax unified
  15              		.file	"BLE_gatt.c"
  16              		.text
  17              	.Ltext0:
  18              		.cfi_sections	.debug_frame
  19              		.section	.text.CyBle_GattsReInitGattDb,"ax",%progbits
  20              		.align	2
  21              		.global	CyBle_GattsReInitGattDb
  22              		.code	16
  23              		.thumb_func
  24              		.type	CyBle_GattsReInitGattDb, %function
  25              	CyBle_GattsReInitGattDb:
  26              	.LFB2:
  27              		.file 1 "Generated_Source\\PSoC4\\BLE_gatt.c"
   1:Generated_Source\PSoC4/BLE_gatt.c **** /***************************************************************************//**
   2:Generated_Source\PSoC4/BLE_gatt.c **** * \file CYBLE_gatt.c
   3:Generated_Source\PSoC4/BLE_gatt.c **** * \version 3.54
   4:Generated_Source\PSoC4/BLE_gatt.c **** * 
   5:Generated_Source\PSoC4/BLE_gatt.c **** * \brief
   6:Generated_Source\PSoC4/BLE_gatt.c **** *  This file contains the source code for the GATT API of the BLE Component.
   7:Generated_Source\PSoC4/BLE_gatt.c **** * 
   8:Generated_Source\PSoC4/BLE_gatt.c **** ********************************************************************************
   9:Generated_Source\PSoC4/BLE_gatt.c **** * \copyright
  10:Generated_Source\PSoC4/BLE_gatt.c **** * Copyright 2014-2018, Cypress Semiconductor Corporation.  All rights reserved.
  11:Generated_Source\PSoC4/BLE_gatt.c **** * You may use this file only in accordance with the license, terms, conditions,
  12:Generated_Source\PSoC4/BLE_gatt.c **** * disclaimers, and limitations in the end user license agreement accompanying
  13:Generated_Source\PSoC4/BLE_gatt.c **** * the software package with which this file was provided.
  14:Generated_Source\PSoC4/BLE_gatt.c **** *******************************************************************************/
  15:Generated_Source\PSoC4/BLE_gatt.c **** 
  16:Generated_Source\PSoC4/BLE_gatt.c **** 
  17:Generated_Source\PSoC4/BLE_gatt.c **** #include "BLE_eventHandler.h"
  18:Generated_Source\PSoC4/BLE_gatt.c **** 
  19:Generated_Source\PSoC4/BLE_gatt.c **** 
  20:Generated_Source\PSoC4/BLE_gatt.c **** /***************************************
  21:Generated_Source\PSoC4/BLE_gatt.c **** * Global variables
  22:Generated_Source\PSoC4/BLE_gatt.c **** ***************************************/
  23:Generated_Source\PSoC4/BLE_gatt.c **** 
  24:Generated_Source\PSoC4/BLE_gatt.c **** CYBLE_STATE_T cyBle_state;
  25:Generated_Source\PSoC4/BLE_gatt.c **** 
  26:Generated_Source\PSoC4/BLE_gatt.c **** #if ((CYBLE_MODE_PROFILE) && (CYBLE_BONDING_REQUIREMENT == CYBLE_BONDING_YES))
  27:Generated_Source\PSoC4/BLE_gatt.c ****     
  28:Generated_Source\PSoC4/BLE_gatt.c **** #if(CYBLE_MODE_PROFILE)
  29:Generated_Source\PSoC4/BLE_gatt.c ****     #if defined(__ARMCC_VERSION)
  30:Generated_Source\PSoC4/BLE_gatt.c ****         CY_ALIGN(CYDEV_FLS_ROW_SIZE) const CY_BLE_FLASH_STORAGE cyBle_flashStorage CY_SECTION(".cy_
ARM GAS  C:\Users\jon\AppData\Local\Temp\ccX9YbKc.s 			page 2


  31:Generated_Source\PSoC4/BLE_gatt.c ****     #elif defined (__GNUC__)
  32:Generated_Source\PSoC4/BLE_gatt.c ****         const CY_BLE_FLASH_STORAGE cyBle_flashStorage CY_SECTION(".cy_checksum_exclude")
  33:Generated_Source\PSoC4/BLE_gatt.c ****             CY_ALIGN(CYDEV_FLS_ROW_SIZE) =
  34:Generated_Source\PSoC4/BLE_gatt.c ****     #elif defined (__ICCARM__)
  35:Generated_Source\PSoC4/BLE_gatt.c ****         #pragma data_alignment=CY_FLASH_SIZEOF_ROW
  36:Generated_Source\PSoC4/BLE_gatt.c ****         #pragma location=".cy_checksum_exclude"
  37:Generated_Source\PSoC4/BLE_gatt.c ****         const CY_BLE_FLASH_STORAGE cyBle_flashStorage =
  38:Generated_Source\PSoC4/BLE_gatt.c ****     #endif  /* (__ARMCC_VERSION) */
  39:Generated_Source\PSoC4/BLE_gatt.c ****     {
  40:Generated_Source\PSoC4/BLE_gatt.c ****         { 0x00u, 0x00u, 0x00u, 0x00u, 0x00u, 0x00u, 0x00u, 0x00u, 0x00u, 0x00u, 0x00u, 0x00u, 0x00u
  41:Generated_Source\PSoC4/BLE_gatt.c ****         0x00u, 0x00u, 0x00u, 0x00u, 0x00u, 0x00u, 0x00u, 0x00u, 0x00u, 0x00u, 0x00u, 0x00u, 0x00u, 
  42:Generated_Source\PSoC4/BLE_gatt.c ****         0x00u, 0x00u, 0x00u, 0x00u, 0x00u, 0x00u, 0x00u, 0x00u, 0x00u, 0x00u, 0x00u, 0x00u, 0x00u, 
  43:Generated_Source\PSoC4/BLE_gatt.c ****         0x00u, 0x00u, 0x00u, 0x00u, 0x00u, 0x00u, 0x00u, 0x00u, 0x00u, 0x00u, 0x00u, 0x00u, 0x00u, 
  44:Generated_Source\PSoC4/BLE_gatt.c ****         0x00u, 0x00u, 0x00u, 0x00u, 0x00u, 0x00u, 0x00u, 0x00u, 0x00u, 0x00u, 0x00u, 0x00u, 0x00u, 
  45:Generated_Source\PSoC4/BLE_gatt.c ****         0x00u, 0x00u, 0x00u, 0x00u, 0x00u, 0x00u, 0x00u, 0x00u, 0x00u, 0x00u, 0x00u, 0x00u, 0x00u, 
  46:Generated_Source\PSoC4/BLE_gatt.c ****         0x00u, 0x00u, 0x00u, 0x00u, 0x00u, 0x00u, 0x00u, 0x00u, 0x00u, 0x00u, 0x00u, 0x00u, 0x00u, 
  47:Generated_Source\PSoC4/BLE_gatt.c ****         0x00u, 0x00u, 0x00u, 0x00u, 0x00u, 0x00u, 0x00u, 0x00u, 0x00u, 0x00u, 0x00u, 0x00u, 0x00u, 
  48:Generated_Source\PSoC4/BLE_gatt.c ****         0x00u, 0x00u, 0x00u, 0x00u, 0x00u, 0x00u, 0x00u, 0x00u, 0x00u, 0x00u, 0x00u, 0x00u, 0x00u, 
  49:Generated_Source\PSoC4/BLE_gatt.c ****         0x00u, 0x00u, 0x00u, 0x00u, 0x00u, 0x00u, 0x00u, 0x00u, 0x00u, 0x00u, 0x00u, 0x00u, 0x00u, 
  50:Generated_Source\PSoC4/BLE_gatt.c ****         0x00u, 0x00u, 0x00u, 0x00u, 0x00u, 0x00u, 0x00u, 0x00u, 0x00u, 0x00u, 0x00u, 0x00u, 0x00u, 
  51:Generated_Source\PSoC4/BLE_gatt.c ****         0x00u, 0x00u, 0x00u, 0x00u, 0x00u, 0x00u, 0x00u, 0x00u, 0x00u, 0x00u, 0x00u, 0x00u, 0x00u, 
  52:Generated_Source\PSoC4/BLE_gatt.c ****         0x00u, 0x00u, 0x00u, 0x00u, 0x00u, 0x00u, 0x00u, 0x00u, 0x00u, 0x00u, 0x00u, 0x00u, 0x00u, 
  53:Generated_Source\PSoC4/BLE_gatt.c ****         0x00u, 0x00u, 0x00u, 0x00u, 0x00u, 0x00u, 0x00u, 0x00u, 0x00u, 0x00u, 0x00u, 0x00u, 0x00u, 
  54:Generated_Source\PSoC4/BLE_gatt.c ****         0x00u, 0x00u, 0x00u, 0x00u, 0x00u, 0x00u, 0x00u, 0x00u, 0x00u, 0x00u, 0x00u, 0x00u, 0x00u, 
  55:Generated_Source\PSoC4/BLE_gatt.c ****         0x00u, 0x00u, 0x00u, 0x00u, 0x00u, 0x00u, 0x00u, 0x00u, 0x00u, 0x00u, 0x00u, 0x00u, 0x00u, 
  56:Generated_Source\PSoC4/BLE_gatt.c ****         0x00u, 0x00u, 0x00u, 0x00u, 0x00u, 0x00u, 0x00u, 0x00u, 0x00u, 0x00u, 0x00u, 0x00u, 0x00u, 
  57:Generated_Source\PSoC4/BLE_gatt.c ****         0x00u, 0x00u, 0x00u, 0x00u, 0x00u, 0x00u, 0x00u, 0x00u, 0x00u, 0x00u, 0x00u, 0x00u, 0x00u, 
  58:Generated_Source\PSoC4/BLE_gatt.c ****         0x00u, 0x00u, 0x00u, 0x00u, 0x00u, 0x00u, 0x00u, 0x00u, 0x00u, 0x00u, 0x00u, 0x00u, 0x00u, 
  59:Generated_Source\PSoC4/BLE_gatt.c ****         0x00u, 0x00u, 0x00u, 0x00u, 0x00u, 0x00u, 0x00u, 0x00u, 0x00u, 0x00u, 0x00u, 0x00u, 0x00u, 
  60:Generated_Source\PSoC4/BLE_gatt.c ****         0x00u, 0x00u, 0x00u, 0x00u, 0x00u, 0x00u, 0x00u, 0x00u, 0x00u, 0x00u, 0x00u, 0x00u, 0x00u, 
  61:Generated_Source\PSoC4/BLE_gatt.c ****         0x00u, 0x00u, 0x00u, 0x00u, 0x00u, 0x00u, 0x00u, 0x00u, 0x00u, 0x00u, 0x00u, 0x00u, 0x00u, 
  62:Generated_Source\PSoC4/BLE_gatt.c ****         0x00u, 0x00u, 0x00u, 0x00u, 0x00u, 0x00u, 0x00u, 0x00u, 0x00u, 0x00u, 0x00u, 0x00u, 0x00u, 
  63:Generated_Source\PSoC4/BLE_gatt.c ****         0x00u, 0x00u, 0x00u, 0x00u, 0x00u, 0x00u, 0x00u, 0x00u, 0x00u, 0x00u, 0x00u, 0x00u, 0x00u, 
  64:Generated_Source\PSoC4/BLE_gatt.c ****         0x00u, 0x00u, 0x00u, 0x00u, 0x00u, 0x00u, 0x00u, 0x00u, 0x00u, 0x00u, 0x00u, 0x00u, 0x00u, 
  65:Generated_Source\PSoC4/BLE_gatt.c ****         0x00u, 0x00u, 0x00u, 0x00u, 0x00u, 0x00u, 0x00u, 0x00u, 0x00u, 0x00u, 0x00u, 0x00u, 0x00u, 
  66:Generated_Source\PSoC4/BLE_gatt.c ****         0x00u, 0x00u, 0x00u, 0x00u, 0x00u, 0x00u, 0x00u, 0x00u, 0x00u, 0x00u, 0x00u, 0x00u, 0x00u, 
  67:Generated_Source\PSoC4/BLE_gatt.c ****         0x00u, 0x00u, 0x00u, 0x00u, 0x00u, 0x00u, 0x00u, 0x00u, 0x00u, 0x00u, 0x00u, 0x00u, 0x00u, 
  68:Generated_Source\PSoC4/BLE_gatt.c ****         0x00u, 0x00u, 0x00u, 0x00u, 0x00u, 0x00u, 0x00u, 0x00u, 0x00u, 0x00u, 0x00u, 0x00u, 0x00u, 
  69:Generated_Source\PSoC4/BLE_gatt.c ****         0x00u, 0x00u, 0x00u, 0x00u, 0x00u, 0x00u, 0x00u, 0x00u, 0x00u, 0x00u, 0x00u, 0x00u, 0x00u, 
  70:Generated_Source\PSoC4/BLE_gatt.c ****         0x00u, 0x00u, 0x00u, 0x00u, 0x00u, 0x00u, 0x00u, 0x00u, 0x00u, 0x00u, 0x00u, 0x00u, 0x00u, 
  71:Generated_Source\PSoC4/BLE_gatt.c ****         0x00u, 0x00u, 0x00u, 0x00u, 0x00u, 0x00u, 0x00u, 0x00u, 0x00u, 0x00u, 0x00u, 0x00u, 0x00u, 
  72:Generated_Source\PSoC4/BLE_gatt.c ****         0x00u, 0x00u, 0x00u, 0x00u, 0x00u, 0x00u, 0x00u, 0x00u, 0x00u, 0x00u, 0x00u, 0x00u, 0x00u, 
  73:Generated_Source\PSoC4/BLE_gatt.c ****         0x00u, 0x00u, 0x00u, 0x00u, 0x00u, 0x00u, 0x00u, 0x00u, 0x00u, 0x00u, 0x00u, 0x00u, 0x00u, 
  74:Generated_Source\PSoC4/BLE_gatt.c ****         0x00u, 0x00u, 0x00u, 0x00u, 0x00u, 0x00u, 0x00u, 0x00u, 0x00u, 0x00u, 0x00u, 0x00u, 0x00u, 
  75:Generated_Source\PSoC4/BLE_gatt.c ****         0x00u, 0x00u, 0x00u, 0x00u, 0x00u, 0x00u, 0x00u, 0x00u, 0x00u, 0x00u, 0x00u, 0x00u, 0x00u, 
  76:Generated_Source\PSoC4/BLE_gatt.c ****         0x00u, 0x00u, 0x00u, 0x00u, 0x00u, 0x00u, 0x00u, 0x00u, 0x00u, 0x00u, 0x00u, 0x00u, 0x00u, 
  77:Generated_Source\PSoC4/BLE_gatt.c ****         0x00u, 0x00u, 0x00u, 0x00u, 0x00u, 0x00u, 0x00u, 0x00u, 0x00u, 0x00u, 0x00u, 0x00u, 0x00u, 
  78:Generated_Source\PSoC4/BLE_gatt.c ****         0x00u, 0x00u, 0x00u, 0x00u, 0x00u, 0x00u, 0x00u, 0x00u, 0x00u, 0x00u, 0x00u, 0x00u, 0x00u, 
  79:Generated_Source\PSoC4/BLE_gatt.c ****         0x00u, 0x00u, 0x00u, 0x00u, 0x00u, 0x00u, 0x00u, 0x00u, 0x00u, 0x00u }, 
  80:Generated_Source\PSoC4/BLE_gatt.c ****         {{
  81:Generated_Source\PSoC4/BLE_gatt.c ****             0x00u, 0x00u,
  82:Generated_Source\PSoC4/BLE_gatt.c ****             0x00u, 0x00u,
  83:Generated_Source\PSoC4/BLE_gatt.c ****         },
  84:Generated_Source\PSoC4/BLE_gatt.c ****         {
  85:Generated_Source\PSoC4/BLE_gatt.c ****             0x00u, 0x00u,
  86:Generated_Source\PSoC4/BLE_gatt.c ****             0x00u, 0x00u,
  87:Generated_Source\PSoC4/BLE_gatt.c ****         },
ARM GAS  C:\Users\jon\AppData\Local\Temp\ccX9YbKc.s 			page 3


  88:Generated_Source\PSoC4/BLE_gatt.c ****         {
  89:Generated_Source\PSoC4/BLE_gatt.c ****             0x00u, 0x00u,
  90:Generated_Source\PSoC4/BLE_gatt.c ****             0x00u, 0x00u,
  91:Generated_Source\PSoC4/BLE_gatt.c ****         },
  92:Generated_Source\PSoC4/BLE_gatt.c ****         {
  93:Generated_Source\PSoC4/BLE_gatt.c ****             0x00u, 0x00u,
  94:Generated_Source\PSoC4/BLE_gatt.c ****             0x00u, 0x00u,
  95:Generated_Source\PSoC4/BLE_gatt.c ****         },
  96:Generated_Source\PSoC4/BLE_gatt.c ****         {
  97:Generated_Source\PSoC4/BLE_gatt.c ****             0x00u, 0x00u,
  98:Generated_Source\PSoC4/BLE_gatt.c ****             0x00u, 0x00u,
  99:Generated_Source\PSoC4/BLE_gatt.c ****         }}, 
 100:Generated_Source\PSoC4/BLE_gatt.c ****         0x04u, /* CYBLE_GATT_DB_CCCD_COUNT */ 
 101:Generated_Source\PSoC4/BLE_gatt.c ****         0x05u, /* CYBLE_GAP_MAX_BONDED_DEVICE */ 
 102:Generated_Source\PSoC4/BLE_gatt.c ****     };
 103:Generated_Source\PSoC4/BLE_gatt.c **** #endif /* (CYBLE_MODE_PROFILE) */
 104:Generated_Source\PSoC4/BLE_gatt.c **** 
 105:Generated_Source\PSoC4/BLE_gatt.c **** #endif  /* (CYBLE_MODE_PROFILE) && (CYBLE_BONDING_REQUIREMENT == CYBLE_BONDING_YES) */
 106:Generated_Source\PSoC4/BLE_gatt.c **** 
 107:Generated_Source\PSoC4/BLE_gatt.c **** #if(CYBLE_GATT_ROLE_SERVER)
 108:Generated_Source\PSoC4/BLE_gatt.c ****     
 109:Generated_Source\PSoC4/BLE_gatt.c ****     const CYBLE_GATTS_T cyBle_gatts =
 110:Generated_Source\PSoC4/BLE_gatt.c **** {
 111:Generated_Source\PSoC4/BLE_gatt.c ****     0x0008u,    /* Handle of the GATT service */
 112:Generated_Source\PSoC4/BLE_gatt.c ****     0x000Au,    /* Handle of the Service Changed characteristic */
 113:Generated_Source\PSoC4/BLE_gatt.c ****     0x000Bu,    /* Handle of the Client Characteristic Configuration descriptor */
 114:Generated_Source\PSoC4/BLE_gatt.c **** };
 115:Generated_Source\PSoC4/BLE_gatt.c ****     
 116:Generated_Source\PSoC4/BLE_gatt.c ****     static uint8 cyBle_attValues[0x28u] = {
 117:Generated_Source\PSoC4/BLE_gatt.c ****     /* Device Name */
 118:Generated_Source\PSoC4/BLE_gatt.c ****     (uint8)'S', (uint8)'e', (uint8)'r', (uint8)'v', (uint8)'e', (uint8)'r', (uint8)' ', (uint8)'B',
 119:Generated_Source\PSoC4/BLE_gatt.c ****     (uint8)'E',
 120:Generated_Source\PSoC4/BLE_gatt.c **** 
 121:Generated_Source\PSoC4/BLE_gatt.c ****     /* Appearance */
 122:Generated_Source\PSoC4/BLE_gatt.c ****     0x00u, 0x00u,
 123:Generated_Source\PSoC4/BLE_gatt.c **** 
 124:Generated_Source\PSoC4/BLE_gatt.c ****     /* Peripheral Preferred Connection Parameters */
 125:Generated_Source\PSoC4/BLE_gatt.c ****     0xFFu, 0xFFu, 0xFFu, 0xFFu, 0x00u, 0x00u, 0xC8u, 0x00u,
 126:Generated_Source\PSoC4/BLE_gatt.c **** 
 127:Generated_Source\PSoC4/BLE_gatt.c ****     /* Service Changed */
 128:Generated_Source\PSoC4/BLE_gatt.c ****     0x00u, 0x00u, 0x00u, 0x00u,
 129:Generated_Source\PSoC4/BLE_gatt.c **** 
 130:Generated_Source\PSoC4/BLE_gatt.c ****     /* TransmitData */
 131:Generated_Source\PSoC4/BLE_gatt.c ****     0x00u, 0x00u, 0x00u,
 132:Generated_Source\PSoC4/BLE_gatt.c **** 
 133:Generated_Source\PSoC4/BLE_gatt.c ****     /* Characteristic User Description */
 134:Generated_Source\PSoC4/BLE_gatt.c ****     (uint8)'E', (uint8)'x', (uint8)'a', (uint8)'m', (uint8)'p', (uint8)'l', (uint8)'e', (uint8)'D',
 135:Generated_Source\PSoC4/BLE_gatt.c ****     (uint8)'t', (uint8)'a',
 136:Generated_Source\PSoC4/BLE_gatt.c **** 
 137:Generated_Source\PSoC4/BLE_gatt.c ****     /* Server Characteristic Configuration */
 138:Generated_Source\PSoC4/BLE_gatt.c ****     0x00u, 0x00u,
 139:Generated_Source\PSoC4/BLE_gatt.c **** 
 140:Generated_Source\PSoC4/BLE_gatt.c **** };
 141:Generated_Source\PSoC4/BLE_gatt.c **** #if(CYBLE_GATT_DB_CCCD_COUNT != 0u)
 142:Generated_Source\PSoC4/BLE_gatt.c **** uint8 cyBle_attValuesCCCD[CYBLE_GATT_DB_CCCD_COUNT];
 143:Generated_Source\PSoC4/BLE_gatt.c **** #endif /* CYBLE_GATT_DB_CCCD_COUNT != 0u */
 144:Generated_Source\PSoC4/BLE_gatt.c **** 
ARM GAS  C:\Users\jon\AppData\Local\Temp\ccX9YbKc.s 			page 4


 145:Generated_Source\PSoC4/BLE_gatt.c **** const uint8 cyBle_attUuid128[][16u] = {
 146:Generated_Source\PSoC4/BLE_gatt.c ****     /* CustomService */
 147:Generated_Source\PSoC4/BLE_gatt.c ****     { 0x32u, 0x01u, 0x9Bu, 0x5Fu, 0x80u, 0x00u, 0x00u, 0x80u, 0x00u, 0x10u, 0x00u, 0x00u, 0xBBu, 0x
 148:Generated_Source\PSoC4/BLE_gatt.c ****     /* TransmitData */
 149:Generated_Source\PSoC4/BLE_gatt.c ****     { 0x32u, 0x01u, 0x9Bu, 0x5Fu, 0x80u, 0x00u, 0x00u, 0x80u, 0x00u, 0x10u, 0x00u, 0x00u, 0xB1u, 0x
 150:Generated_Source\PSoC4/BLE_gatt.c **** };
 151:Generated_Source\PSoC4/BLE_gatt.c **** 
 152:Generated_Source\PSoC4/BLE_gatt.c **** CYBLE_GATTS_ATT_GEN_VAL_LEN_T cyBle_attValuesLen[CYBLE_GATT_DB_ATT_VAL_COUNT] = {
 153:Generated_Source\PSoC4/BLE_gatt.c ****     { 0x000Au, (void *)&cyBle_attValues[0] }, /* Device Name */
 154:Generated_Source\PSoC4/BLE_gatt.c ****     { 0x0002u, (void *)&cyBle_attValues[10] }, /* Appearance */
 155:Generated_Source\PSoC4/BLE_gatt.c ****     { 0x0008u, (void *)&cyBle_attValues[12] }, /* Peripheral Preferred Connection Parameters */
 156:Generated_Source\PSoC4/BLE_gatt.c ****     { 0x0004u, (void *)&cyBle_attValues[20] }, /* Service Changed */
 157:Generated_Source\PSoC4/BLE_gatt.c ****     { 0x0002u, (void *)&cyBle_attValuesCCCD[0] }, /* Client Characteristic Configuration */
 158:Generated_Source\PSoC4/BLE_gatt.c ****     { 0x0010u, (void *)&cyBle_attUuid128[0] }, /* CustomService UUID */
 159:Generated_Source\PSoC4/BLE_gatt.c ****     { 0x0010u, (void *)&cyBle_attUuid128[1] }, /* TransmitData UUID */
 160:Generated_Source\PSoC4/BLE_gatt.c ****     { 0x0003u, (void *)&cyBle_attValues[24] }, /* TransmitData */
 161:Generated_Source\PSoC4/BLE_gatt.c ****     { 0x000Bu, (void *)&cyBle_attValues[27] }, /* Characteristic User Description */
 162:Generated_Source\PSoC4/BLE_gatt.c ****     { 0x0002u, (void *)&cyBle_attValuesCCCD[2] }, /* Client Characteristic Configuration */
 163:Generated_Source\PSoC4/BLE_gatt.c ****     { 0x0002u, (void *)&cyBle_attValues[38] }, /* Server Characteristic Configuration */
 164:Generated_Source\PSoC4/BLE_gatt.c **** };
 165:Generated_Source\PSoC4/BLE_gatt.c **** 
 166:Generated_Source\PSoC4/BLE_gatt.c **** const CYBLE_GATTS_DB_T cyBle_gattDB[0x11u] = {
 167:Generated_Source\PSoC4/BLE_gatt.c ****     { 0x0001u, 0x2800u /* Primary service                     */, 0x00000001u /*           */, 0x00
 168:Generated_Source\PSoC4/BLE_gatt.c ****     { 0x0002u, 0x2803u /* Characteristic                      */, 0x00020001u /* rd        */, 0x00
 169:Generated_Source\PSoC4/BLE_gatt.c ****     { 0x0003u, 0x2A00u /* Device Name                         */, 0x01020001u /* rd        */, 0x00
 170:Generated_Source\PSoC4/BLE_gatt.c ****     { 0x0004u, 0x2803u /* Characteristic                      */, 0x00020001u /* rd        */, 0x00
 171:Generated_Source\PSoC4/BLE_gatt.c ****     { 0x0005u, 0x2A01u /* Appearance                          */, 0x01020001u /* rd        */, 0x00
 172:Generated_Source\PSoC4/BLE_gatt.c ****     { 0x0006u, 0x2803u /* Characteristic                      */, 0x00020001u /* rd        */, 0x00
 173:Generated_Source\PSoC4/BLE_gatt.c ****     { 0x0007u, 0x2A04u /* Peripheral Preferred Connection Par */, 0x01020001u /* rd        */, 0x00
 174:Generated_Source\PSoC4/BLE_gatt.c ****     { 0x0008u, 0x2800u /* Primary service                     */, 0x00000001u /*           */, 0x00
 175:Generated_Source\PSoC4/BLE_gatt.c ****     { 0x0009u, 0x2803u /* Characteristic                      */, 0x00220001u /* rd,ind    */, 0x00
 176:Generated_Source\PSoC4/BLE_gatt.c ****     { 0x000Au, 0x2A05u /* Service Changed                     */, 0x01220001u /* rd,ind    */, 0x00
 177:Generated_Source\PSoC4/BLE_gatt.c ****     { 0x000Bu, 0x2902u /* Client Characteristic Configuration */, 0x010A0101u /* rd,wr     */, 0x00
 178:Generated_Source\PSoC4/BLE_gatt.c ****     { 0x000Cu, 0x2800u /* Primary service                     */, 0x08000001u /*           */, 0x00
 179:Generated_Source\PSoC4/BLE_gatt.c ****     { 0x000Du, 0x2803u /* Characteristic                      */, 0x00130001u /* br,rd,ntf */, 0x00
 180:Generated_Source\PSoC4/BLE_gatt.c ****     { 0x000Eu, 0xCBB1u /* TransmitData                        */, 0x09130001u /* br,rd,ntf */, 0x00
 181:Generated_Source\PSoC4/BLE_gatt.c ****     { 0x000Fu, 0x2901u /* Characteristic User Description     */, 0x01020001u /* rd        */, 0x00
 182:Generated_Source\PSoC4/BLE_gatt.c ****     { 0x0010u, 0x2902u /* Client Characteristic Configuration */, 0x010A0101u /* rd,wr     */, 0x00
 183:Generated_Source\PSoC4/BLE_gatt.c ****     { 0x0011u, 0x2903u /* Server Characteristic Configuration */, 0x010A0101u /* rd,wr     */, 0x00
 184:Generated_Source\PSoC4/BLE_gatt.c **** };
 185:Generated_Source\PSoC4/BLE_gatt.c **** 
 186:Generated_Source\PSoC4/BLE_gatt.c **** 
 187:Generated_Source\PSoC4/BLE_gatt.c **** #endif /* (CYBLE_GATT_ROLE_SERVER) */
 188:Generated_Source\PSoC4/BLE_gatt.c **** 
 189:Generated_Source\PSoC4/BLE_gatt.c **** #if(CYBLE_GATT_ROLE_CLIENT)
 190:Generated_Source\PSoC4/BLE_gatt.c ****     
 191:Generated_Source\PSoC4/BLE_gatt.c **** CYBLE_CLIENT_STATE_T cyBle_clientState;
 192:Generated_Source\PSoC4/BLE_gatt.c **** CYBLE_GATTC_T cyBle_gattc;
 193:Generated_Source\PSoC4/BLE_gatt.c **** CYBLE_GATT_ATTR_HANDLE_RANGE_T cyBle_gattcDiscoveryRange;
 194:Generated_Source\PSoC4/BLE_gatt.c ****     
 195:Generated_Source\PSoC4/BLE_gatt.c **** #endif /* (CYBLE_GATT_ROLE_CLIENT) */
 196:Generated_Source\PSoC4/BLE_gatt.c **** 
 197:Generated_Source\PSoC4/BLE_gatt.c **** 
 198:Generated_Source\PSoC4/BLE_gatt.c **** #if(CYBLE_GATT_ROLE_SERVER)
 199:Generated_Source\PSoC4/BLE_gatt.c **** 
 200:Generated_Source\PSoC4/BLE_gatt.c **** /****************************************************************************** 
 201:Generated_Source\PSoC4/BLE_gatt.c **** * Function Name: CyBle_GattsReInitGattDb
ARM GAS  C:\Users\jon\AppData\Local\Temp\ccX9YbKc.s 			page 5


 202:Generated_Source\PSoC4/BLE_gatt.c **** ***************************************************************************//**
 203:Generated_Source\PSoC4/BLE_gatt.c **** * 
 204:Generated_Source\PSoC4/BLE_gatt.c **** *  Reinitializes the GATT database.
 205:Generated_Source\PSoC4/BLE_gatt.c **** * 
 206:Generated_Source\PSoC4/BLE_gatt.c **** *  \return
 207:Generated_Source\PSoC4/BLE_gatt.c **** *  CYBLE_API_RESULT_T: A function result states if it succeeded or failed with
 208:Generated_Source\PSoC4/BLE_gatt.c **** *  error codes:
 209:Generated_Source\PSoC4/BLE_gatt.c **** 
 210:Generated_Source\PSoC4/BLE_gatt.c **** *  Errors codes                          | Description
 211:Generated_Source\PSoC4/BLE_gatt.c **** *  ------------                          | -----------
 212:Generated_Source\PSoC4/BLE_gatt.c **** *  CYBLE_ERROR_OK						 | GATT database was reinitialized successfully.
 213:Generated_Source\PSoC4/BLE_gatt.c **** *  CYBLE_ERROR_INVALID_STATE             | If the function is called in any state except CYBLE_STAT
 214:Generated_Source\PSoC4/BLE_gatt.c **** *  CYBLE_ERROR_INVALID_PARAMETER         | If the Database has zero entries or is a NULL pointer.
 215:Generated_Source\PSoC4/BLE_gatt.c **** * 
 216:Generated_Source\PSoC4/BLE_gatt.c **** ******************************************************************************/
 217:Generated_Source\PSoC4/BLE_gatt.c **** CYBLE_API_RESULT_T CyBle_GattsReInitGattDb(void)
 218:Generated_Source\PSoC4/BLE_gatt.c **** {
  28              		.loc 1 218 0
  29              		.cfi_startproc
  30              		@ args = 0, pretend = 0, frame = 0
  31              		@ frame_needed = 0, uses_anonymous_args = 0
  32 0000 10B5     		push	{r4, lr}
  33              		.cfi_def_cfa_offset 8
  34              		.cfi_offset 4, -8
  35              		.cfi_offset 14, -4
 219:Generated_Source\PSoC4/BLE_gatt.c ****     CYBLE_API_RESULT_T apiResult;
 220:Generated_Source\PSoC4/BLE_gatt.c ****     
 221:Generated_Source\PSoC4/BLE_gatt.c ****     if(CyBle_GetState() == CYBLE_STATE_DISCONNECTED)
  36              		.loc 1 221 0
  37 0002 064B     		ldr	r3, .L4
  38 0004 1B78     		ldrb	r3, [r3]
  39 0006 042B     		cmp	r3, #4
  40 0008 05D1     		bne	.L3
 222:Generated_Source\PSoC4/BLE_gatt.c ****     {
 223:Generated_Source\PSoC4/BLE_gatt.c ****         apiResult = CyBle_GattsDbRegister(cyBle_gattDB, CYBLE_GATT_DB_INDEX_COUNT, CYBLE_GATT_DB_MA
  41              		.loc 1 223 0
  42 000a 0B22     		movs	r2, #11
  43 000c 1121     		movs	r1, #17
  44 000e 0448     		ldr	r0, .L4+4
  45 0010 FFF7FEFF 		bl	CyBle_GattsDbRegister
  46              	.LVL0:
  47 0014 01E0     		b	.L2
  48              	.LVL1:
  49              	.L3:
 224:Generated_Source\PSoC4/BLE_gatt.c ****     }
 225:Generated_Source\PSoC4/BLE_gatt.c ****     else
 226:Generated_Source\PSoC4/BLE_gatt.c ****     {
 227:Generated_Source\PSoC4/BLE_gatt.c ****         apiResult = CYBLE_ERROR_INVALID_STATE;
  50              		.loc 1 227 0
  51 0016 0420     		movs	r0, #4
  52 0018 FF30     		adds	r0, r0, #255
  53              	.L2:
  54              	.LVL2:
 228:Generated_Source\PSoC4/BLE_gatt.c ****     }
 229:Generated_Source\PSoC4/BLE_gatt.c ****     
 230:Generated_Source\PSoC4/BLE_gatt.c ****     return(apiResult);
 231:Generated_Source\PSoC4/BLE_gatt.c **** }
ARM GAS  C:\Users\jon\AppData\Local\Temp\ccX9YbKc.s 			page 6


  55              		.loc 1 231 0
  56              		@ sp needed
  57 001a 10BD     		pop	{r4, pc}
  58              	.L5:
  59              		.align	2
  60              	.L4:
  61 001c 00000000 		.word	cyBle_state
  62 0020 00000000 		.word	.LANCHOR0
  63              		.cfi_endproc
  64              	.LFE2:
  65              		.size	CyBle_GattsReInitGattDb, .-CyBle_GattsReInitGattDb
  66              		.section	.text.CyBle_GattsWriteEventHandler,"ax",%progbits
  67              		.align	2
  68              		.global	CyBle_GattsWriteEventHandler
  69              		.code	16
  70              		.thumb_func
  71              		.type	CyBle_GattsWriteEventHandler, %function
  72              	CyBle_GattsWriteEventHandler:
  73              	.LFB3:
 232:Generated_Source\PSoC4/BLE_gatt.c **** 
 233:Generated_Source\PSoC4/BLE_gatt.c **** 
 234:Generated_Source\PSoC4/BLE_gatt.c **** /****************************************************************************** 
 235:Generated_Source\PSoC4/BLE_gatt.c **** * Function Name: CyBle_GattsWriteEventHandler
 236:Generated_Source\PSoC4/BLE_gatt.c **** ***************************************************************************//**
 237:Generated_Source\PSoC4/BLE_gatt.c **** * 
 238:Generated_Source\PSoC4/BLE_gatt.c **** *  Handles the Write Request Event for GATT service.
 239:Generated_Source\PSoC4/BLE_gatt.c **** * 
 240:Generated_Source\PSoC4/BLE_gatt.c **** *  \param eventParam: The pointer to the data structure specified by the event.
 241:Generated_Source\PSoC4/BLE_gatt.c **** * 
 242:Generated_Source\PSoC4/BLE_gatt.c **** *  \return
 243:Generated_Source\PSoC4/BLE_gatt.c **** *  CYBLE_GATT_ERR_CODE_T: A function returns one of the following status 
 244:Generated_Source\PSoC4/BLE_gatt.c **** *  values.
 245:Generated_Source\PSoC4/BLE_gatt.c **** 
 246:Generated_Source\PSoC4/BLE_gatt.c **** *  Errors codes                          | Description
 247:Generated_Source\PSoC4/BLE_gatt.c **** *  --------------------                  | -----------
 248:Generated_Source\PSoC4/BLE_gatt.c **** *  CYBLE_GATT_ERR_NONE                   | Write is successful.
 249:Generated_Source\PSoC4/BLE_gatt.c **** * 
 250:Generated_Source\PSoC4/BLE_gatt.c **** ******************************************************************************/
 251:Generated_Source\PSoC4/BLE_gatt.c **** CYBLE_GATT_ERR_CODE_T CyBle_GattsWriteEventHandler(CYBLE_GATTS_WRITE_REQ_PARAM_T *eventParam)
 252:Generated_Source\PSoC4/BLE_gatt.c **** {
  74              		.loc 1 252 0
  75              		.cfi_startproc
  76              		@ args = 0, pretend = 0, frame = 0
  77              		@ frame_needed = 0, uses_anonymous_args = 0
  78              	.LVL3:
  79 0000 70B5     		push	{r4, r5, r6, lr}
  80              		.cfi_def_cfa_offset 16
  81              		.cfi_offset 4, -16
  82              		.cfi_offset 5, -12
  83              		.cfi_offset 6, -8
  84              		.cfi_offset 14, -4
  85 0002 0500     		movs	r5, r0
  86              	.LVL4:
 253:Generated_Source\PSoC4/BLE_gatt.c ****     CYBLE_GATT_ERR_CODE_T gattErr = CYBLE_GATT_ERR_NONE;
 254:Generated_Source\PSoC4/BLE_gatt.c ****     
 255:Generated_Source\PSoC4/BLE_gatt.c ****     /* Client Characteristic Configuration descriptor write request */
 256:Generated_Source\PSoC4/BLE_gatt.c ****     if(eventParam->handleValPair.attrHandle == cyBle_gatts.cccdHandle)
ARM GAS  C:\Users\jon\AppData\Local\Temp\ccX9YbKc.s 			page 7


  87              		.loc 1 256 0
  88 0004 8389     		ldrh	r3, [r0, #12]
  89 0006 0B2B     		cmp	r3, #11
  90 0008 1FD1     		bne	.L10
 257:Generated_Source\PSoC4/BLE_gatt.c ****     {
 258:Generated_Source\PSoC4/BLE_gatt.c ****         /* Store value to database */
 259:Generated_Source\PSoC4/BLE_gatt.c ****         gattErr = CyBle_GattsWriteAttributeValue(&eventParam->handleValPair, 0u, 
  91              		.loc 1 259 0
  92 000a 0430     		adds	r0, r0, #4
  93              	.LVL5:
  94 000c 3533     		adds	r3, r3, #53
  95 000e 2A00     		movs	r2, r5
  96 0010 0021     		movs	r1, #0
  97 0012 FFF7FEFF 		bl	CyBle_GattsWriteAttributeValue
  98              	.LVL6:
  99 0016 041E     		subs	r4, r0, #0
 100              	.LVL7:
 260:Generated_Source\PSoC4/BLE_gatt.c ****                         &eventParam->connHandle, CYBLE_GATT_DB_PEER_INITIATED);
 261:Generated_Source\PSoC4/BLE_gatt.c ****         
 262:Generated_Source\PSoC4/BLE_gatt.c ****         if(gattErr == CYBLE_GATT_ERR_NONE)
 101              		.loc 1 262 0
 102 0018 11D1     		bne	.L8
 263:Generated_Source\PSoC4/BLE_gatt.c ****         {
 264:Generated_Source\PSoC4/BLE_gatt.c ****             if(CYBLE_IS_INDICATION_ENABLED_IN_PTR(eventParam->handleValPair.value.val))
 103              		.loc 1 264 0
 104 001a 6868     		ldr	r0, [r5, #4]
 105              	.LVL8:
 106 001c FFF7FEFF 		bl	CyBle_Get16ByPtr
 107              	.LVL9:
 108 0020 8307     		lsls	r3, r0, #30
 109 0022 06D5     		bpl	.L9
 265:Generated_Source\PSoC4/BLE_gatt.c ****             {
 266:Generated_Source\PSoC4/BLE_gatt.c ****                 CyBle_ApplCallback((uint32)CYBLE_EVT_GATTS_INDICATION_ENABLED, eventParam);
 110              		.loc 1 266 0
 111 0024 0A4B     		ldr	r3, .L11
 112 0026 1B68     		ldr	r3, [r3]
 113 0028 2900     		movs	r1, r5
 114 002a 8220     		movs	r0, #130
 115 002c 4000     		lsls	r0, r0, #1
 116 002e 9847     		blx	r3
 117              	.LVL10:
 118 0030 05E0     		b	.L8
 119              	.L9:
 267:Generated_Source\PSoC4/BLE_gatt.c ****             }
 268:Generated_Source\PSoC4/BLE_gatt.c ****             else
 269:Generated_Source\PSoC4/BLE_gatt.c ****             {
 270:Generated_Source\PSoC4/BLE_gatt.c ****                 CyBle_ApplCallback((uint32)CYBLE_EVT_GATTS_INDICATION_DISABLED, eventParam);
 120              		.loc 1 270 0
 121 0032 074B     		ldr	r3, .L11
 122 0034 1B68     		ldr	r3, [r3]
 123 0036 2900     		movs	r1, r5
 124 0038 0620     		movs	r0, #6
 125 003a FF30     		adds	r0, r0, #255
 126 003c 9847     		blx	r3
 127              	.LVL11:
 128              	.L8:
 271:Generated_Source\PSoC4/BLE_gatt.c ****             }
ARM GAS  C:\Users\jon\AppData\Local\Temp\ccX9YbKc.s 			page 8


 272:Generated_Source\PSoC4/BLE_gatt.c ****         }
 273:Generated_Source\PSoC4/BLE_gatt.c ****         cyBle_eventHandlerFlag &= (uint8)~CYBLE_CALLBACK;
 129              		.loc 1 273 0
 130 003e 054A     		ldr	r2, .L11+4
 131 0040 1378     		ldrb	r3, [r2]
 132 0042 0121     		movs	r1, #1
 133 0044 8B43     		bics	r3, r1
 134 0046 1370     		strb	r3, [r2]
 135 0048 00E0     		b	.L7
 136              	.LVL12:
 137              	.L10:
 253:Generated_Source\PSoC4/BLE_gatt.c ****     
 138              		.loc 1 253 0
 139 004a 0024     		movs	r4, #0
 140              	.LVL13:
 141              	.L7:
 274:Generated_Source\PSoC4/BLE_gatt.c ****     }
 275:Generated_Source\PSoC4/BLE_gatt.c ****     return (gattErr);
 276:Generated_Source\PSoC4/BLE_gatt.c **** }
 142              		.loc 1 276 0
 143 004c 2000     		movs	r0, r4
 144              		@ sp needed
 145              	.LVL14:
 146              	.LVL15:
 147 004e 70BD     		pop	{r4, r5, r6, pc}
 148              	.L12:
 149              		.align	2
 150              	.L11:
 151 0050 00000000 		.word	CyBle_ApplCallback
 152 0054 00000000 		.word	cyBle_eventHandlerFlag
 153              		.cfi_endproc
 154              	.LFE3:
 155              		.size	CyBle_GattsWriteEventHandler, .-CyBle_GattsWriteEventHandler
 156              		.global	cyBle_gattDB
 157              		.global	cyBle_attValuesLen
 158              		.global	cyBle_attUuid128
 159              		.comm	cyBle_attValuesCCCD,4,4
 160              		.global	cyBle_gatts
 161              		.comm	cyBle_state,1,1
 162              		.section	.rodata
 163              		.align	2
 164              		.set	.LANCHOR0,. + 0
 165              		.type	cyBle_gattDB, %object
 166              		.size	cyBle_gattDB, 340
 167              	cyBle_gattDB:
 168 0000 0100     		.short	1
 169 0002 0028     		.short	10240
 170 0004 01000000 		.word	1
 171 0008 0700     		.short	7
 172 000a 0000     		.space	2
 173 000c 0018     		.short	6144
 174 000e 0000     		.space	2
 175 0010 00000000 		.word	0
 176 0014 0200     		.short	2
 177 0016 0328     		.short	10243
 178 0018 01000200 		.word	131073
 179 001c 0300     		.short	3
ARM GAS  C:\Users\jon\AppData\Local\Temp\ccX9YbKc.s 			page 9


 180 001e 0000     		.space	2
 181 0020 002A     		.short	10752
 182 0022 0000     		.space	2
 183 0024 00000000 		.word	0
 184 0028 0300     		.short	3
 185 002a 002A     		.short	10752
 186 002c 01000201 		.word	16908289
 187 0030 0300     		.short	3
 188 0032 0000     		.space	2
 189 0034 0A00     		.short	10
 190 0036 0000     		.space	2
 191 0038 00000000 		.word	cyBle_attValuesLen
 192 003c 0400     		.short	4
 193 003e 0328     		.short	10243
 194 0040 01000200 		.word	131073
 195 0044 0500     		.short	5
 196 0046 0000     		.space	2
 197 0048 012A     		.short	10753
 198 004a 0000     		.space	2
 199 004c 00000000 		.word	0
 200 0050 0500     		.short	5
 201 0052 012A     		.short	10753
 202 0054 01000201 		.word	16908289
 203 0058 0500     		.short	5
 204 005a 0000     		.space	2
 205 005c 0200     		.short	2
 206 005e 0000     		.space	2
 207 0060 08000000 		.word	cyBle_attValuesLen+8
 208 0064 0600     		.short	6
 209 0066 0328     		.short	10243
 210 0068 01000200 		.word	131073
 211 006c 0700     		.short	7
 212 006e 0000     		.space	2
 213 0070 042A     		.short	10756
 214 0072 0000     		.space	2
 215 0074 00000000 		.word	0
 216 0078 0700     		.short	7
 217 007a 042A     		.short	10756
 218 007c 01000201 		.word	16908289
 219 0080 0700     		.short	7
 220 0082 0000     		.space	2
 221 0084 0800     		.short	8
 222 0086 0000     		.space	2
 223 0088 10000000 		.word	cyBle_attValuesLen+16
 224 008c 0800     		.short	8
 225 008e 0028     		.short	10240
 226 0090 01000000 		.word	1
 227 0094 0B00     		.short	11
 228 0096 0000     		.space	2
 229 0098 0118     		.short	6145
 230 009a 0000     		.space	2
 231 009c 00000000 		.word	0
 232 00a0 0900     		.short	9
 233 00a2 0328     		.short	10243
 234 00a4 01002200 		.word	2228225
 235 00a8 0B00     		.short	11
 236 00aa 0000     		.space	2
ARM GAS  C:\Users\jon\AppData\Local\Temp\ccX9YbKc.s 			page 10


 237 00ac 052A     		.short	10757
 238 00ae 0000     		.space	2
 239 00b0 00000000 		.word	0
 240 00b4 0A00     		.short	10
 241 00b6 052A     		.short	10757
 242 00b8 01002201 		.word	19005441
 243 00bc 0B00     		.short	11
 244 00be 0000     		.space	2
 245 00c0 0400     		.short	4
 246 00c2 0000     		.space	2
 247 00c4 18000000 		.word	cyBle_attValuesLen+24
 248 00c8 0B00     		.short	11
 249 00ca 0229     		.short	10498
 250 00cc 01010A01 		.word	17432833
 251 00d0 0B00     		.short	11
 252 00d2 0000     		.space	2
 253 00d4 0200     		.short	2
 254 00d6 0000     		.space	2
 255 00d8 20000000 		.word	cyBle_attValuesLen+32
 256 00dc 0C00     		.short	12
 257 00de 0028     		.short	10240
 258 00e0 01000008 		.word	134217729
 259 00e4 1100     		.short	17
 260 00e6 0000     		.space	2
 261 00e8 1000     		.short	16
 262 00ea 0000     		.space	2
 263 00ec 28000000 		.word	cyBle_attValuesLen+40
 264 00f0 0D00     		.short	13
 265 00f2 0328     		.short	10243
 266 00f4 01001300 		.word	1245185
 267 00f8 1100     		.short	17
 268 00fa 0000     		.space	2
 269 00fc 1000     		.short	16
 270 00fe 0000     		.space	2
 271 0100 30000000 		.word	cyBle_attValuesLen+48
 272 0104 0E00     		.short	14
 273 0106 B1CB     		.short	-13391
 274 0108 01001309 		.word	152240129
 275 010c 1100     		.short	17
 276 010e 0000     		.space	2
 277 0110 0300     		.short	3
 278 0112 0000     		.space	2
 279 0114 38000000 		.word	cyBle_attValuesLen+56
 280 0118 0F00     		.short	15
 281 011a 0129     		.short	10497
 282 011c 01000201 		.word	16908289
 283 0120 0F00     		.short	15
 284 0122 0000     		.space	2
 285 0124 0B00     		.short	11
 286 0126 0000     		.space	2
 287 0128 40000000 		.word	cyBle_attValuesLen+64
 288 012c 1000     		.short	16
 289 012e 0229     		.short	10498
 290 0130 01010A01 		.word	17432833
 291 0134 1000     		.short	16
 292 0136 0000     		.space	2
 293 0138 0200     		.short	2
ARM GAS  C:\Users\jon\AppData\Local\Temp\ccX9YbKc.s 			page 11


 294 013a 0000     		.space	2
 295 013c 48000000 		.word	cyBle_attValuesLen+72
 296 0140 1100     		.short	17
 297 0142 0329     		.short	10499
 298 0144 01010A01 		.word	17432833
 299 0148 1100     		.short	17
 300 014a 0000     		.space	2
 301 014c 0200     		.short	2
 302 014e 0000     		.space	2
 303 0150 50000000 		.word	cyBle_attValuesLen+80
 304              		.type	cyBle_attUuid128, %object
 305              		.size	cyBle_attUuid128, 32
 306              	cyBle_attUuid128:
 307 0154 32       		.byte	50
 308 0155 01       		.byte	1
 309 0156 9B       		.byte	-101
 310 0157 5F       		.byte	95
 311 0158 80       		.byte	-128
 312 0159 00       		.byte	0
 313 015a 00       		.byte	0
 314 015b 80       		.byte	-128
 315 015c 00       		.byte	0
 316 015d 10       		.byte	16
 317 015e 00       		.byte	0
 318 015f 00       		.byte	0
 319 0160 BB       		.byte	-69
 320 0161 CB       		.byte	-53
 321 0162 03       		.byte	3
 322 0163 00       		.byte	0
 323 0164 32       		.byte	50
 324 0165 01       		.byte	1
 325 0166 9B       		.byte	-101
 326 0167 5F       		.byte	95
 327 0168 80       		.byte	-128
 328 0169 00       		.byte	0
 329 016a 00       		.byte	0
 330 016b 80       		.byte	-128
 331 016c 00       		.byte	0
 332 016d 10       		.byte	16
 333 016e 00       		.byte	0
 334 016f 00       		.byte	0
 335 0170 B1       		.byte	-79
 336 0171 CB       		.byte	-53
 337 0172 03       		.byte	3
 338 0173 00       		.byte	0
 339              		.type	cyBle_gatts, %object
 340              		.size	cyBle_gatts, 6
 341              	cyBle_gatts:
 342 0174 0800     		.short	8
 343 0176 0A00     		.short	10
 344 0178 0B00     		.short	11
 345              		.data
 346              		.align	2
 347              		.type	cyBle_attValuesLen, %object
 348              		.size	cyBle_attValuesLen, 88
 349              	cyBle_attValuesLen:
 350 0000 0A00     		.short	10
ARM GAS  C:\Users\jon\AppData\Local\Temp\ccX9YbKc.s 			page 12


 351 0002 0000     		.space	2
 352 0004 58000000 		.word	cyBle_attValues
 353 0008 0200     		.short	2
 354 000a 0000     		.space	2
 355 000c 62000000 		.word	cyBle_attValues+10
 356 0010 0800     		.short	8
 357 0012 0000     		.space	2
 358 0014 64000000 		.word	cyBle_attValues+12
 359 0018 0400     		.short	4
 360 001a 0000     		.space	2
 361 001c 6C000000 		.word	cyBle_attValues+20
 362 0020 0200     		.short	2
 363 0022 0000     		.space	2
 364 0024 00000000 		.word	cyBle_attValuesCCCD
 365 0028 1000     		.short	16
 366 002a 0000     		.space	2
 367 002c 00000000 		.word	cyBle_attUuid128
 368 0030 1000     		.short	16
 369 0032 0000     		.space	2
 370 0034 10000000 		.word	cyBle_attUuid128+16
 371 0038 0300     		.short	3
 372 003a 0000     		.space	2
 373 003c 70000000 		.word	cyBle_attValues+24
 374 0040 0B00     		.short	11
 375 0042 0000     		.space	2
 376 0044 73000000 		.word	cyBle_attValues+27
 377 0048 0200     		.short	2
 378 004a 0000     		.space	2
 379 004c 02000000 		.word	cyBle_attValuesCCCD+2
 380 0050 0200     		.short	2
 381 0052 0000     		.space	2
 382 0054 7E000000 		.word	cyBle_attValues+38
 383              		.type	cyBle_attValues, %object
 384              		.size	cyBle_attValues, 40
 385              	cyBle_attValues:
 386 0058 53       		.byte	83
 387 0059 65       		.byte	101
 388 005a 72       		.byte	114
 389 005b 76       		.byte	118
 390 005c 65       		.byte	101
 391 005d 72       		.byte	114
 392 005e 20       		.byte	32
 393 005f 42       		.byte	66
 394 0060 4C       		.byte	76
 395 0061 45       		.byte	69
 396 0062 00       		.byte	0
 397 0063 00       		.byte	0
 398 0064 FF       		.byte	-1
 399 0065 FF       		.byte	-1
 400 0066 FF       		.byte	-1
 401 0067 FF       		.byte	-1
 402 0068 00       		.byte	0
 403 0069 00       		.byte	0
 404 006a C8       		.byte	-56
 405 006b 00       		.byte	0
 406 006c 00       		.byte	0
 407 006d 00       		.byte	0
ARM GAS  C:\Users\jon\AppData\Local\Temp\ccX9YbKc.s 			page 13


 408 006e 00       		.byte	0
 409 006f 00       		.byte	0
 410 0070 00       		.byte	0
 411 0071 00       		.byte	0
 412 0072 00       		.byte	0
 413 0073 45       		.byte	69
 414 0074 78       		.byte	120
 415 0075 61       		.byte	97
 416 0076 6D       		.byte	109
 417 0077 70       		.byte	112
 418 0078 6C       		.byte	108
 419 0079 65       		.byte	101
 420 007a 44       		.byte	68
 421 007b 61       		.byte	97
 422 007c 74       		.byte	116
 423 007d 61       		.byte	97
 424 007e 00       		.byte	0
 425 007f 00       		.byte	0
 426              		.text
 427              	.Letext0:
 428              		.file 2 "Generated_Source\\PSoC4\\cytypes.h"
 429              		.file 3 "Generated_Source\\PSoC4\\BLE_Stack.h"
 430              		.file 4 "Generated_Source\\PSoC4\\BLE_StackGatt.h"
 431              		.file 5 "Generated_Source\\PSoC4\\BLE_StackGattServer.h"
 432              		.file 6 "Generated_Source\\PSoC4\\BLE_StackGattDb.h"
 433              		.file 7 "Generated_Source\\PSoC4\\BLE.h"
 434              		.file 8 "Generated_Source\\PSoC4\\BLE_gatt.h"
 435              		.file 9 "Generated_Source\\PSoC4\\BLE_eventHandler.h"