ARM GAS  C:\Users\jon\AppData\Local\Temp\ccW6a706.s 			page 1


   1              		.syntax unified
   2              		.cpu cortex-m0
   3              		.fpu softvfp
   4              		.eabi_attribute 20, 1
   5              		.eabi_attribute 21, 1
   6              		.eabi_attribute 23, 3
   7              		.eabi_attribute 24, 1
   8              		.eabi_attribute 25, 1
   9              		.eabi_attribute 26, 1
  10              		.eabi_attribute 30, 1
  11              		.eabi_attribute 34, 0
  12              		.eabi_attribute 18, 4
  13              		.thumb
  14              		.syntax unified
  15              		.file	"main.c"
  16              		.text
  17              	.Ltext0:
  18              		.cfi_sections	.debug_frame
  19              		.section	.text.updateGATTDB,"ax",%progbits
  20              		.align	2
  21              		.global	updateGATTDB
  22              		.code	16
  23              		.thumb_func
  24              		.type	updateGATTDB, %function
  25              	updateGATTDB:
  26              	.LFB36:
  27              		.file 1 "main.c"
   1:main.c        **** /**
   2:main.c        ****  * One-Way Communication demo server for PSoC 4 BLE.
   3:main.c        ****  *
   4:main.c        ****  * Pressing SW2 on the server Pioneer Kit base board should cause
   5:main.c        ****  * the red LED to light on the client Pioneer Kit base board. 
   6:main.c        ****  * 
   7:main.c        ****  * by Jonathan Bush
   8:main.c        ****  * Arizona State University
   9:main.c        ****  * 2018.11.15
  10:main.c        ****  * 
  11:main.c        ****  * Based on BluetoothCommunication by Harsha Kadekar
  12:main.c        ****  * https://github.com/harsha-kadekar/BluetoothCommunication
  13:main.c        ****  *
  14:main.c        ****  * Released under the Apache License 2.0
  15:main.c        ****  */
  16:main.c        **** 
  17:main.c        **** #include "project.h"
  18:main.c        **** #include "main.h"
  19:main.c        **** #include "cyapicallbacks.h"
  20:main.c        **** 
  21:main.c        **** /* this is the button state that we want the client to read */
  22:main.c        **** uint8 button_state;
  23:main.c        **** 
  24:main.c        **** /*
  25:main.c        **** Name: updateGATTDB
  26:main.c        **** Description: This function will update Server's GATTDB so that client can read the values
  27:main.c        ****              Here I am converting my counter value to RGB value and storing as 3 byte array
  28:main.c        ****              in server's GATT DB. Whenever client do a read on server, the values in GATTDB
  29:main.c        ****              will be sent to client.
  30:main.c        **** Parameters: counter - Number of times button has been pressed or value to be sent to client
ARM GAS  C:\Users\jon\AppData\Local\Temp\ccW6a706.s 			page 2


  31:main.c        **** Return: - 
  32:main.c        **** */
  33:main.c        **** void updateGATTDB()
  34:main.c        **** {
  28              		.loc 1 34 0
  29              		.cfi_startproc
  30              		@ args = 0, pretend = 0, frame = 16
  31              		@ frame_needed = 0, uses_anonymous_args = 0
  32 0000 00B5     		push	{lr}
  33              		.cfi_def_cfa_offset 4
  34              		.cfi_offset 14, -4
  35 0002 85B0     		sub	sp, sp, #20
  36              		.cfi_def_cfa_offset 24
  35:main.c        ****     
  36:main.c        ****     CYBLE_GATT_HANDLE_VALUE_PAIR_T		TransmitDataHandle; //This describes the data to be sent to cli
  37:main.c        ****     
  38:main.c        ****     union ServerBytes Data;              //This is the data to be stored in DB    
  39:main.c        ****     
  40:main.c        ****     //Put that calculated value to the Server DB datastructure.
  41:main.c        ****     Data.values[0] = button_state;
  37              		.loc 1 41 0
  38 0004 094B     		ldr	r3, .L2
  39 0006 1B78     		ldrb	r3, [r3]
  40 0008 6A46     		mov	r2, sp
  41 000a 1370     		strb	r3, [r2]
  42:main.c        **** 
  43:main.c        ****     //Before committing the value to GATTDB, process any previous
  44:main.c        ****     //bluetooth signals.
  45:main.c        ****     CyBle_ProcessEvents();
  42              		.loc 1 45 0
  43 000c FFF7FEFF 		bl	CyBle_ProcessEvents
  44              	.LVL0:
  46:main.c        ****     
  47:main.c        ****     TransmitDataHandle.attrHandle = 0x000Eu;          //CYBLE_CUSTOMSERVICE_TRANSMITDATA_CHAR_HANDL
  45              		.loc 1 47 0
  46 0010 01A8     		add	r0, sp, #4
  47 0012 0E23     		movs	r3, #14
  48 0014 0381     		strh	r3, [r0, #8]
  48:main.c        ****     TransmitDataHandle.value.val = Data.bytes;        //Actual values to be stored
  49              		.loc 1 48 0
  50 0016 6B46     		mov	r3, sp
  51 0018 0193     		str	r3, [sp, #4]
  49:main.c        **** 	TransmitDataHandle.value.len = 3;                 //Number of bytes to be transferred or stored
  52              		.loc 1 49 0
  53 001a 0323     		movs	r3, #3
  54 001c 8380     		strh	r3, [r0, #4]
  50:main.c        ****     
  51:main.c        ****     //This function call will store the value to the Server GATTDB. 
  52:main.c        ****     // Any read requests from client after executing below function will 
  53:main.c        ****     // reflect the new values
  54:main.c        ****     CyBle_GattsWriteAttributeValue(&TransmitDataHandle, 
  55              		.loc 1 54 0
  56 001e 0023     		movs	r3, #0
  57 0020 034A     		ldr	r2, .L2+4
  58 0022 0021     		movs	r1, #0
  59 0024 FFF7FEFF 		bl	CyBle_GattsWriteAttributeValue
  60              	.LVL1:
ARM GAS  C:\Users\jon\AppData\Local\Temp\ccW6a706.s 			page 3


  55:main.c        **** 									FALSE, 
  56:main.c        **** 									&cyBle_connHandle, 
  57:main.c        **** 									CYBLE_GATT_DB_LOCALLY_INITIATED);
  58:main.c        ****     
  59:main.c        **** }
  61              		.loc 1 59 0
  62 0028 05B0     		add	sp, sp, #20
  63              		@ sp needed
  64 002a 00BD     		pop	{pc}
  65              	.L3:
  66              		.align	2
  67              	.L2:
  68 002c 00000000 		.word	button_state
  69 0030 00000000 		.word	cyBle_connHandle
  70              		.cfi_endproc
  71              	.LFE36:
  72              		.size	updateGATTDB, .-updateGATTDB
  73              		.section	.text.BluetoothEventHandler,"ax",%progbits
  74              		.align	2
  75              		.global	BluetoothEventHandler
  76              		.code	16
  77              		.thumb_func
  78              		.type	BluetoothEventHandler, %function
  79              	BluetoothEventHandler:
  80              	.LFB37:
  60:main.c        **** 
  61:main.c        **** /*
  62:main.c        **** Name: BluetoothEventHandler
  63:main.c        **** Description: This function will handle all the incoming or outgoing BLUETOOH signals/events
  64:main.c        **** Parameters: event - Type of signal like bluetooth started, bluetooth connected to another device,
  65:main.c        ****                 disconnected from client, read request, write request, etc.
  66:main.c        ****         eventParams - information related to bluetooth event. Like if client wants to write
  67:main.c        ****                        values, then event will write event and eventParams will have data to be wri
  68:main.c        **** return: -
  69:main.c        **** 
  70:main.c        **** */
  71:main.c        **** void BluetoothEventHandler(uint32 event, void * eventParam)
  72:main.c        **** {
  81              		.loc 1 72 0
  82              		.cfi_startproc
  83              		@ args = 0, pretend = 0, frame = 0
  84              		@ frame_needed = 0, uses_anonymous_args = 0
  85              	.LVL2:
  86 0000 10B5     		push	{r4, lr}
  87              		.cfi_def_cfa_offset 8
  88              		.cfi_offset 4, -8
  89              		.cfi_offset 14, -4
  73:main.c        **** 	
  74:main.c        **** 	switch(event)
  90              		.loc 1 74 0
  91 0002 2628     		cmp	r0, #38
  92 0004 0CD0     		beq	.L6
  93 0006 02D8     		bhi	.L7
  94 0008 0128     		cmp	r0, #1
  95 000a 05D0     		beq	.L8
  96 000c 19E0     		b	.L4
  97              	.L7:
ARM GAS  C:\Users\jon\AppData\Local\Temp\ccW6a706.s 			page 4


  98 000e 2828     		cmp	r0, #40
  99 0010 0ED0     		beq	.L9
 100 0012 4228     		cmp	r0, #66
 101 0014 10D0     		beq	.L10
 102 0016 14E0     		b	.L4
 103              	.L8:
  75:main.c        ****     {
  76:main.c        **** 		case CYBLE_EVT_STACK_ON:
  77:main.c        **** 			/* BLE stack is on. Start BLE advertisement */
  78:main.c        **** 			CyBle_GappStartAdvertisement(CYBLE_ADVERTISING_FAST);
 104              		.loc 1 78 0
 105 0018 0020     		movs	r0, #0
 106              	.LVL3:
 107 001a FFF7FEFF 		bl	CyBle_GappStartAdvertisement
 108              	.LVL4:
  79:main.c        **** 		break;
 109              		.loc 1 79 0
 110 001e 10E0     		b	.L4
 111              	.LVL5:
 112              	.L6:
  80:main.c        **** 		
  81:main.c        **** 		case CYBLE_EVT_GAPP_ADVERTISEMENT_START_STOP:
  82:main.c        **** 			/* This event is generated whenever Advertisement starts or stops.
  83:main.c        **** 			* The exact state of advertisement is obtained by CyBle_State() */
  84:main.c        **** 			if(CyBle_GetState() == CYBLE_STATE_DISCONNECTED)
 113              		.loc 1 84 0
 114 0020 084B     		ldr	r3, .L12
 115 0022 1B78     		ldrb	r3, [r3]
 116 0024 042B     		cmp	r3, #4
 117 0026 0CD1     		bne	.L4
  85:main.c        **** 			{
  86:main.c        **** 				CyBle_GappStartAdvertisement(CYBLE_ADVERTISING_FAST);
 118              		.loc 1 86 0
 119 0028 0020     		movs	r0, #0
 120              	.LVL6:
 121 002a FFF7FEFF 		bl	CyBle_GappStartAdvertisement
 122              	.LVL7:
  87:main.c        **** 			}
  88:main.c        ****             
  89:main.c        ****             if(CyBle_GetState() == CYBLE_STATE_CONNECTED)
  90:main.c        ****             {
  91:main.c        ****                 //An indication that devices are connected via bluetooth
  92:main.c        ****                 //Pin_Red_Write(HIGH);
  93:main.c        ****             }
  94:main.c        ****             
  95:main.c        **** 		break;
 123              		.loc 1 95 0
 124 002e 08E0     		b	.L4
 125              	.LVL8:
 126              	.L9:
  96:main.c        **** 			
  97:main.c        **** 		case CYBLE_EVT_GAP_DEVICE_DISCONNECTED:
  98:main.c        **** 			/* This event is generated at GAP disconnection. 
  99:main.c        **** 			* Restart advertisement */
 100:main.c        **** 			CyBle_GappStartAdvertisement(CYBLE_ADVERTISING_FAST);
 127              		.loc 1 100 0
 128 0030 0020     		movs	r0, #0
ARM GAS  C:\Users\jon\AppData\Local\Temp\ccW6a706.s 			page 5


 129              	.LVL9:
 130 0032 FFF7FEFF 		bl	CyBle_GappStartAdvertisement
 131              	.LVL10:
 101:main.c        ****             //Pin_Red_Write(LOW);
 102:main.c        **** 		break;
 132              		.loc 1 102 0
 133 0036 04E0     		b	.L4
 134              	.LVL11:
 135              	.L10:
 103:main.c        **** 
 104:main.c        **** 			
 105:main.c        **** 	    case CYBLE_EVT_GATT_DISCONNECT_IND:
 106:main.c        **** 			/* This event is generated at GATT disconnection */
 107:main.c        **** 			//nCounter = 0; //After disconnection resetting my server state.
 108:main.c        ****             updateGATTDB();
 136              		.loc 1 108 0
 137 0038 FFF7FEFF 		bl	updateGATTDB
 138              	.LVL12:
 109:main.c        ****             //Pin_Red_Write(LOW);
 110:main.c        ****             //After reset, start advertisement - server available for connection with client
 111:main.c        ****             CyBle_GappStartAdvertisement(CYBLE_ADVERTISING_FAST);
 139              		.loc 1 111 0
 140 003c 0020     		movs	r0, #0
 141 003e FFF7FEFF 		bl	CyBle_GappStartAdvertisement
 142              	.LVL13:
 143              	.L4:
 112:main.c        ****             
 113:main.c        **** 		break;	
 114:main.c        **** 			
 115:main.c        ****         default:
 116:main.c        **** 
 117:main.c        ****        	break;
 118:main.c        ****     }   	
 119:main.c        **** }
 144              		.loc 1 119 0
 145              		@ sp needed
 146 0042 10BD     		pop	{r4, pc}
 147              	.L13:
 148              		.align	2
 149              	.L12:
 150 0044 00000000 		.word	cyBle_state
 151              		.cfi_endproc
 152              	.LFE37:
 153              		.size	BluetoothEventHandler, .-BluetoothEventHandler
 154              		.section	.text.InitializeSystem,"ax",%progbits
 155              		.align	2
 156              		.global	InitializeSystem
 157              		.code	16
 158              		.thumb_func
 159              		.type	InitializeSystem, %function
 160              	InitializeSystem:
 161              	.LFB38:
 120:main.c        **** 
 121:main.c        **** /*
 122:main.c        **** Name: InitializeSystem
 123:main.c        **** Description: This function will bring your system to ready state or initial state
 124:main.c        ****              Here we switch on components like bluetooth or UART, switch of LEDs
ARM GAS  C:\Users\jon\AppData\Local\Temp\ccW6a706.s 			page 6


 125:main.c        ****              like that.
 126:main.c        **** Parameters: - 
 127:main.c        **** Return: - 
 128:main.c        **** */
 129:main.c        **** void InitializeSystem(void)
 130:main.c        **** {
 162              		.loc 1 130 0
 163              		.cfi_startproc
 164              		@ args = 0, pretend = 0, frame = 0
 165              		@ frame_needed = 0, uses_anonymous_args = 0
 166 0000 10B5     		push	{r4, lr}
 167              		.cfi_def_cfa_offset 8
 168              		.cfi_offset 4, -8
 169              		.cfi_offset 14, -4
 131:main.c        ****     CySysPmUnfreezeIo();
 170              		.loc 1 131 0
 171 0002 FFF7FEFF 		bl	CySysPmUnfreezeIo
 172              	.LVL14:
 132:main.c        ****     
 133:main.c        ****     button_state = 1;
 173              		.loc 1 133 0
 174 0006 0122     		movs	r2, #1
 175 0008 044B     		ldr	r3, .L15
 176 000a 1A70     		strb	r2, [r3]
 134:main.c        ****     
 135:main.c        **** 	/* Enable Global Interrupt Mask */
 136:main.c        **** 	CyGlobalIntEnable;		
 177              		.loc 1 136 0
 178              		.syntax divided
 179              	@ 136 "main.c" 1
 180 000c 62B6     		CPSIE   i
 181              	@ 0 "" 2
 137:main.c        **** 
 138:main.c        ****     //Start your bluetooth. GeneralEventHandler is the function which will your 
 139:main.c        ****     //bluetooth signals/events.
 140:main.c        **** 	CyBle_Start(BluetoothEventHandler);
 182              		.loc 1 140 0
 183              		.thumb
 184              		.syntax unified
 185 000e 0448     		ldr	r0, .L15+4
 186 0010 FFF7FEFF 		bl	CyBle_Start
 187              	.LVL15:
 141:main.c        ****     
 142:main.c        ****     //Setting the initial values of the Server GATT DB
 143:main.c        ****     updateGATTDB();
 188              		.loc 1 143 0
 189 0014 FFF7FEFF 		bl	updateGATTDB
 190              	.LVL16:
 144:main.c        ****  
 145:main.c        **** }
 191              		.loc 1 145 0
 192              		@ sp needed
 193 0018 10BD     		pop	{r4, pc}
 194              	.L16:
 195 001a C046     		.align	2
 196              	.L15:
 197 001c 00000000 		.word	button_state
ARM GAS  C:\Users\jon\AppData\Local\Temp\ccW6a706.s 			page 7


 198 0020 00000000 		.word	BluetoothEventHandler
 199              		.cfi_endproc
 200              	.LFE38:
 201              		.size	InitializeSystem, .-InitializeSystem
 202              		.section	.text.main,"ax",%progbits
 203              		.align	2
 204              		.global	main
 205              		.code	16
 206              		.thumb_func
 207              		.type	main, %function
 208              	main:
 209              	.LFB39:
 146:main.c        **** 
 147:main.c        **** int main(void)
 148:main.c        **** {
 210              		.loc 1 148 0
 211              		.cfi_startproc
 212              		@ Volatile: function does not return.
 213              		@ args = 0, pretend = 0, frame = 0
 214              		@ frame_needed = 0, uses_anonymous_args = 0
 215 0000 10B5     		push	{r4, lr}
 216              		.cfi_def_cfa_offset 8
 217              		.cfi_offset 4, -8
 218              		.cfi_offset 14, -4
 149:main.c        ****     InitializeSystem(); /* initialization routine */
 219              		.loc 1 149 0
 220 0002 FFF7FEFF 		bl	InitializeSystem
 221              	.LVL17:
 222              	.L18:
 150:main.c        ****   
 151:main.c        ****     /* loop forever */
 152:main.c        ****     for(;;)
 153:main.c        ****     {        
 154:main.c        ****         CyBle_ProcessEvents(); /* process any pending BLE events first */
 223              		.loc 1 154 0 discriminator 1
 224 0006 FFF7FEFF 		bl	CyBle_ProcessEvents
 225              	.LVL18:
 155:main.c        ****     
 156:main.c        ****         button_state = Switch_2_Read(); /* read the current switch state */
 226              		.loc 1 156 0 discriminator 1
 227 000a FFF7FEFF 		bl	Switch_2_Read
 228              	.LVL19:
 229 000e 074B     		ldr	r3, .L19
 230 0010 1870     		strb	r0, [r3]
 157:main.c        ****         
 158:main.c        ****         updateGATTDB(); /* update the GATT DB so that the client can read the new switch state */
 231              		.loc 1 158 0 discriminator 1
 232 0012 FFF7FEFF 		bl	updateGATTDB
 233              	.LVL20:
 159:main.c        ****         
 160:main.c        ****         Pin_Red_Write(!Pin_Red_Read());
 234              		.loc 1 160 0 discriminator 1
 235 0016 FFF7FEFF 		bl	Pin_Red_Read
 236              	.LVL21:
 237 001a 4342     		rsbs	r3, r0, #0
 238 001c 5841     		adcs	r0, r0, r3
 239 001e C0B2     		uxtb	r0, r0
ARM GAS  C:\Users\jon\AppData\Local\Temp\ccW6a706.s 			page 8


 240 0020 FFF7FEFF 		bl	Pin_Red_Write
 241              	.LVL22:
 161:main.c        ****         CyDelay(250);   /* wait a bit before checking again */
 242              		.loc 1 161 0 discriminator 1
 243 0024 FA20     		movs	r0, #250
 244 0026 FFF7FEFF 		bl	CyDelay
 245              	.LVL23:
 246 002a ECE7     		b	.L18
 247              	.L20:
 248              		.align	2
 249              	.L19:
 250 002c 00000000 		.word	button_state
 251              		.cfi_endproc
 252              	.LFE39:
 253              		.size	main, .-main
 254              		.comm	button_state,1,1
 255              		.text
 256              	.Letext0:
 257              		.file 2 "Generated_Source\\PSoC4/cytypes.h"
 258              		.file 3 "Generated_Source\\PSoC4/BLE_StackGatt.h"
 259              		.file 4 "Generated_Source\\PSoC4/BLE_Stack.h"
 260              		.file 5 "Generated_Source\\PSoC4/BLE_eventHandler.h"
 261              		.file 6 "main.h"
 262              		.file 7 "Generated_Source\\PSoC4/BLE_StackGattDb.h"
 263              		.file 8 "Generated_Source\\PSoC4/BLE.h"
 264              		.file 9 "Generated_Source\\PSoC4/cyPm.h"
 265              		.file 10 "Generated_Source\\PSoC4/Switch_2.h"
 266              		.file 11 "Generated_Source\\PSoC4/Pin_Red.h"
 267              		.file 12 "Generated_Source\\PSoC4/CyLib.h"