ARM GAS  C:\Users\jon\AppData\Local\Temp\cciWBaFQ.s 			page 1


   1              		.syntax unified
   2              		.cpu cortex-m0
   3              		.fpu softvfp
   4              		.eabi_attribute 20, 1
   5              		.eabi_attribute 21, 1
   6              		.eabi_attribute 23, 3
   7              		.eabi_attribute 24, 1
   8              		.eabi_attribute 25, 1
   9              		.eabi_attribute 26, 1
  10              		.eabi_attribute 30, 1
  11              		.eabi_attribute 34, 0
  12              		.eabi_attribute 18, 4
  13              		.thumb
  14              		.syntax unified
  15              		.file	"BLE_1.c"
  16              		.text
  17              	.Ltext0:
  18              		.cfi_sections	.debug_frame
  19              		.section	.text.CyBle_ServiceInit,"ax",%progbits
  20              		.align	2
  21              		.global	CyBle_ServiceInit
  22              		.code	16
  23              		.thumb_func
  24              		.type	CyBle_ServiceInit, %function
  25              	CyBle_ServiceInit:
  26              	.LFB3:
  27              		.file 1 "Generated_Source\\PSoC4\\BLE_1.c"
   1:Generated_Source\PSoC4/BLE_1.c **** /***************************************************************************//**
   2:Generated_Source\PSoC4/BLE_1.c **** * \file CYBLE.c
   3:Generated_Source\PSoC4/BLE_1.c **** * \version 3.54
   4:Generated_Source\PSoC4/BLE_1.c **** * 
   5:Generated_Source\PSoC4/BLE_1.c **** * \brief
   6:Generated_Source\PSoC4/BLE_1.c **** *  This file contains the source code for the Common APIs of the BLE Component.
   7:Generated_Source\PSoC4/BLE_1.c **** * 
   8:Generated_Source\PSoC4/BLE_1.c **** ********************************************************************************
   9:Generated_Source\PSoC4/BLE_1.c **** * \copyright
  10:Generated_Source\PSoC4/BLE_1.c **** * Copyright 2014-2018, Cypress Semiconductor Corporation.  All rights reserved.
  11:Generated_Source\PSoC4/BLE_1.c **** * You may use this file only in accordance with the license, terms, conditions,
  12:Generated_Source\PSoC4/BLE_1.c **** * disclaimers, and limitations in the end user license agreement accompanying
  13:Generated_Source\PSoC4/BLE_1.c **** * the software package with which this file was provided.
  14:Generated_Source\PSoC4/BLE_1.c **** *******************************************************************************/
  15:Generated_Source\PSoC4/BLE_1.c **** 
  16:Generated_Source\PSoC4/BLE_1.c **** #include "BLE_1_eventHandler.h"
  17:Generated_Source\PSoC4/BLE_1.c **** #include "BLE_1_HAL_PVT.h"
  18:Generated_Source\PSoC4/BLE_1.c **** #include <stdlib.h>
  19:Generated_Source\PSoC4/BLE_1.c **** 
  20:Generated_Source\PSoC4/BLE_1.c **** 
  21:Generated_Source\PSoC4/BLE_1.c **** /***************************************
  22:Generated_Source\PSoC4/BLE_1.c **** * Function Prototypes
  23:Generated_Source\PSoC4/BLE_1.c **** ***************************************/
  24:Generated_Source\PSoC4/BLE_1.c **** 
  25:Generated_Source\PSoC4/BLE_1.c **** #if(CYBLE_GATT_ROLE_SERVER)
  26:Generated_Source\PSoC4/BLE_1.c ****     #if(CYBLE_GAP_ROLE_PERIPHERAL)
  27:Generated_Source\PSoC4/BLE_1.c ****         static void CyBle_ChangeAdLocalName(const char8 name[], uint8 dest);
  28:Generated_Source\PSoC4/BLE_1.c ****     #endif /* (CYBLE_GAP_ROLE_PERIPHERAL) */
  29:Generated_Source\PSoC4/BLE_1.c **** #endif /* (CYBLE_GATT_ROLE_SERVER) */
  30:Generated_Source\PSoC4/BLE_1.c ****     
ARM GAS  C:\Users\jon\AppData\Local\Temp\cciWBaFQ.s 			page 2


  31:Generated_Source\PSoC4/BLE_1.c **** 
  32:Generated_Source\PSoC4/BLE_1.c **** /***************************************
  33:Generated_Source\PSoC4/BLE_1.c **** * Global Variables
  34:Generated_Source\PSoC4/BLE_1.c **** ***************************************/
  35:Generated_Source\PSoC4/BLE_1.c **** 
  36:Generated_Source\PSoC4/BLE_1.c **** /* Indicates whether the BLE has been initialized. The variable is initialized to
  37:Generated_Source\PSoC4/BLE_1.c ****    0 and set to 1 the first time CyBle_Start() is called. This allows the component
  38:Generated_Source\PSoC4/BLE_1.c ****    to restart without reinitialization after the first call to the CyBle_Start() 
  39:Generated_Source\PSoC4/BLE_1.c ****    routine. If reinitialization of the component is required, the variable should 
  40:Generated_Source\PSoC4/BLE_1.c ****    be set to 0 before the CyBle_Start() routine is called. Alternatively, the BLE
  41:Generated_Source\PSoC4/BLE_1.c ****    can be reinitialized by calling the CyBle_Init() function.
  42:Generated_Source\PSoC4/BLE_1.c **** */
  43:Generated_Source\PSoC4/BLE_1.c **** uint8  cyBle_initVar = 0u;
  44:Generated_Source\PSoC4/BLE_1.c **** 
  45:Generated_Source\PSoC4/BLE_1.c **** /* Allocate RAM memory for stack. This buffer could be reused by application when 
  46:Generated_Source\PSoC4/BLE_1.c ****    BLE component is stopped. For export mode buffer is allocated in heap.
  47:Generated_Source\PSoC4/BLE_1.c **** */
  48:Generated_Source\PSoC4/BLE_1.c **** #if(CYBLE_SHARING_MODE_EXPORT)
  49:Generated_Source\PSoC4/BLE_1.c ****     
  50:Generated_Source\PSoC4/BLE_1.c **** uint8 *cyBle_stackMemoryRam = NULL;
  51:Generated_Source\PSoC4/BLE_1.c **** 
  52:Generated_Source\PSoC4/BLE_1.c **** #else
  53:Generated_Source\PSoC4/BLE_1.c **** 
  54:Generated_Source\PSoC4/BLE_1.c **** CYBLE_CYALIGNED_BEGIN CY_NOINIT uint8 cyBle_stackMemoryRam[CYBLE_STACK_RAM_SIZE] CYBLE_CYALIGNED_EN
  55:Generated_Source\PSoC4/BLE_1.c **** 
  56:Generated_Source\PSoC4/BLE_1.c **** #endif  /* CYBLE_SHARING_MODE_EXPORT */
  57:Generated_Source\PSoC4/BLE_1.c **** 
  58:Generated_Source\PSoC4/BLE_1.c **** #if(CYBLE_GAP_ROLE_PERIPHERAL || CYBLE_GAP_ROLE_BROADCASTER)
  59:Generated_Source\PSoC4/BLE_1.c **** 
  60:Generated_Source\PSoC4/BLE_1.c **** 
  61:Generated_Source\PSoC4/BLE_1.c **** 
  62:Generated_Source\PSoC4/BLE_1.c **** #endif /* CYBLE_GAP_ROLE_PERIPHERAL || CYBLE_GAP_ROLE_BROADCASTER */
  63:Generated_Source\PSoC4/BLE_1.c **** 
  64:Generated_Source\PSoC4/BLE_1.c **** #if(CYBLE_GAP_ROLE_CENTRAL)
  65:Generated_Source\PSoC4/BLE_1.c ****     
  66:Generated_Source\PSoC4/BLE_1.c **** CYBLE_GAPC_CONN_PARAM_T cyBle_connectionParameters;
  67:Generated_Source\PSoC4/BLE_1.c **** 
  68:Generated_Source\PSoC4/BLE_1.c **** /* Connecting timeout is set to 30 seconds in CyBle_Init function. 
  69:Generated_Source\PSoC4/BLE_1.c ****    Not zero value starts timer in CyBle_GapcConnectDevice() API fucntion.
  70:Generated_Source\PSoC4/BLE_1.c **** */
  71:Generated_Source\PSoC4/BLE_1.c **** uint16 cyBle_connectingTimeout;
  72:Generated_Source\PSoC4/BLE_1.c ****     
  73:Generated_Source\PSoC4/BLE_1.c **** #endif /* CYBLE_GAP_ROLE_CENTRAL */
  74:Generated_Source\PSoC4/BLE_1.c **** 
  75:Generated_Source\PSoC4/BLE_1.c **** #if(CYBLE_GAP_ROLE_CENTRAL || CYBLE_GAP_ROLE_OBSERVER)
  76:Generated_Source\PSoC4/BLE_1.c ****     
  77:Generated_Source\PSoC4/BLE_1.c **** /* This variable of type CYBLE_GAPC_DISC_INFO_T is present only when  
  78:Generated_Source\PSoC4/BLE_1.c ****    the BLE component is configured for Central GAP role or Central and  
  79:Generated_Source\PSoC4/BLE_1.c ****    Peripheral GAP role. It contains the Scan settings entered in the  
  80:Generated_Source\PSoC4/BLE_1.c ****    customizer. This variable can be used by advanced users to change Scan  
  81:Generated_Source\PSoC4/BLE_1.c ****    settings in runtime.
  82:Generated_Source\PSoC4/BLE_1.c **** */
  83:Generated_Source\PSoC4/BLE_1.c **** CYBLE_GAPC_DISC_INFO_T cyBle_discoveryInfo =
  84:Generated_Source\PSoC4/BLE_1.c **** {
  85:Generated_Source\PSoC4/BLE_1.c ****     0x02u,      /* discProcedure */
  86:Generated_Source\PSoC4/BLE_1.c ****     0x01u,      /* scanType */
  87:Generated_Source\PSoC4/BLE_1.c ****     0x0030u,    /* scanInterval */
ARM GAS  C:\Users\jon\AppData\Local\Temp\cciWBaFQ.s 			page 3


  88:Generated_Source\PSoC4/BLE_1.c ****     0x0030u,    /* scanWindow */
  89:Generated_Source\PSoC4/BLE_1.c ****     0x00u,      /* ownAddrType */
  90:Generated_Source\PSoC4/BLE_1.c ****     0x00u,      /* scanFilterPolicy */
  91:Generated_Source\PSoC4/BLE_1.c ****     0x001Eu,    /* scanTO */
  92:Generated_Source\PSoC4/BLE_1.c ****     0x00u,      /* filterDuplicates */
  93:Generated_Source\PSoC4/BLE_1.c **** };
  94:Generated_Source\PSoC4/BLE_1.c ****     
  95:Generated_Source\PSoC4/BLE_1.c **** #endif /* CYBLE_GAP_ROLE_CENTRAL || CYBLE_GAP_ROLE_OBSERVER */
  96:Generated_Source\PSoC4/BLE_1.c **** 
  97:Generated_Source\PSoC4/BLE_1.c **** #if((CYBLE_GAP_ROLE_PERIPHERAL || CYBLE_GAP_ROLE_CENTRAL) && (CYBLE_BONDING_REQUIREMENT == CYBLE_BO
  98:Generated_Source\PSoC4/BLE_1.c **** 
  99:Generated_Source\PSoC4/BLE_1.c **** uint8 cyBle_peerBonding;
 100:Generated_Source\PSoC4/BLE_1.c **** uint8 cyBle_pendingFlashWrite;
 101:Generated_Source\PSoC4/BLE_1.c ****     
 102:Generated_Source\PSoC4/BLE_1.c **** #if(CYBLE_GATT_DB_CCCD_COUNT != 0u)
 103:Generated_Source\PSoC4/BLE_1.c ****     static uint8 cyBle_pendingFlashClearCccdHandle;
 104:Generated_Source\PSoC4/BLE_1.c **** #endif /* CYBLE_GATT_DB_CCCD_COUNT != 0u */
 105:Generated_Source\PSoC4/BLE_1.c ****     
 106:Generated_Source\PSoC4/BLE_1.c **** #endif  /* (CYBLE_BONDING_REQUIREMENT == CYBLE_BONDING_YES) */
 107:Generated_Source\PSoC4/BLE_1.c **** 
 108:Generated_Source\PSoC4/BLE_1.c **** CYBLE_CALLBACK_T CyBle_ApplCallback;
 109:Generated_Source\PSoC4/BLE_1.c **** CYBLE_GAP_BD_ADDR_T cyBle_deviceAddress = {{0x89u, 0x00u, 0x00u, 0x5Bu, 0xA0u, 0x00u}, 0x00u };
 110:Generated_Source\PSoC4/BLE_1.c **** CYBLE_GAP_BD_ADDR_T * cyBle_sflashDeviceAddress = CYBLE_SFLASH_DEVICE_ADDRESS_PTR;
 111:Generated_Source\PSoC4/BLE_1.c **** 
 112:Generated_Source\PSoC4/BLE_1.c **** 
 113:Generated_Source\PSoC4/BLE_1.c **** /******************************************************************************
 114:Generated_Source\PSoC4/BLE_1.c **** * Function Name: CyBle_Init
 115:Generated_Source\PSoC4/BLE_1.c **** ***************************************************************************//**
 116:Generated_Source\PSoC4/BLE_1.c **** *
 117:Generated_Source\PSoC4/BLE_1.c **** *   Initializes the component with the parameters set in the customizer.
 118:Generated_Source\PSoC4/BLE_1.c **** * 
 119:Generated_Source\PSoC4/BLE_1.c **** *  \return
 120:Generated_Source\PSoC4/BLE_1.c **** *   None
 121:Generated_Source\PSoC4/BLE_1.c **** * 
 122:Generated_Source\PSoC4/BLE_1.c **** ******************************************************************************/
 123:Generated_Source\PSoC4/BLE_1.c **** void CyBle_Init(void)
 124:Generated_Source\PSoC4/BLE_1.c **** {
 125:Generated_Source\PSoC4/BLE_1.c ****     cyBle_eventHandlerFlag = 0u;
 126:Generated_Source\PSoC4/BLE_1.c ****     cyBle_busyStatus = CYBLE_STACK_STATE_FREE;
 127:Generated_Source\PSoC4/BLE_1.c **** 
 128:Generated_Source\PSoC4/BLE_1.c ****     #if(CYBLE_GAP_ROLE_PERIPHERAL || CYBLE_GAP_ROLE_BROADCASTER) 
 129:Generated_Source\PSoC4/BLE_1.c ****         cyBle_advertisingIntervalType = CYBLE_ADVERTISING_FAST; 
 130:Generated_Source\PSoC4/BLE_1.c ****     #endif /* (CYBLE_GAP_ROLE_PERIPHERAL || CYBLE_GAP_ROLE_BROADCASTER)  */
 131:Generated_Source\PSoC4/BLE_1.c ****     #if(CYBLE_GAP_ROLE_CENTRAL || CYBLE_GAP_ROLE_OBSERVER)
 132:Generated_Source\PSoC4/BLE_1.c ****         cyBle_scanningIntervalType = CYBLE_SCANNING_FAST; 
 133:Generated_Source\PSoC4/BLE_1.c ****     #endif /* (CYBLE_GAP_ROLE_CENTRAL || CYBLE_GAP_ROLE_OBSERVER) */
 134:Generated_Source\PSoC4/BLE_1.c ****         
 135:Generated_Source\PSoC4/BLE_1.c ****     /* Init default connection parameters. 
 136:Generated_Source\PSoC4/BLE_1.c ****        Application may change it before initiating a connection */
 137:Generated_Source\PSoC4/BLE_1.c ****     #if(CYBLE_GAP_ROLE_CENTRAL)
 138:Generated_Source\PSoC4/BLE_1.c ****         cyBle_connectionParameters.scanIntv = cyBle_discoveryInfo.scanIntv;
 139:Generated_Source\PSoC4/BLE_1.c ****         cyBle_connectionParameters.scanWindow = cyBle_discoveryInfo.scanWindow;
 140:Generated_Source\PSoC4/BLE_1.c ****         cyBle_connectionParameters.ownAddrType = cyBle_discoveryInfo.ownAddrType;
 141:Generated_Source\PSoC4/BLE_1.c ****         cyBle_connectionParameters.initiatorFilterPolicy = cyBle_discoveryInfo.scanFilterPolicy;
 142:Generated_Source\PSoC4/BLE_1.c ****         cyBle_connectionParameters.connIntvMin = CYBLE_GAPC_CONNECTION_INTERVAL_MIN;
 143:Generated_Source\PSoC4/BLE_1.c ****         cyBle_connectionParameters.connIntvMax = CYBLE_GAPC_CONNECTION_INTERVAL_MAX;
 144:Generated_Source\PSoC4/BLE_1.c ****         cyBle_connectionParameters.connLatency = CYBLE_GAPC_CONNECTION_SLAVE_LATENCY;
ARM GAS  C:\Users\jon\AppData\Local\Temp\cciWBaFQ.s 			page 4


 145:Generated_Source\PSoC4/BLE_1.c ****         cyBle_connectionParameters.supervisionTO = CYBLE_GAPC_CONNECTION_TIME_OUT;
 146:Generated_Source\PSoC4/BLE_1.c ****         cyBle_connectionParameters.minCeLength = 0x0000u;
 147:Generated_Source\PSoC4/BLE_1.c ****         cyBle_connectionParameters.maxCeLength = 0xFFFFu;
 148:Generated_Source\PSoC4/BLE_1.c ****         
 149:Generated_Source\PSoC4/BLE_1.c ****         cyBle_connectingTimeout = CYBLE_GAPC_CONNECTING_TIMEOUT;
 150:Generated_Source\PSoC4/BLE_1.c ****     #endif /* CYBLE_GAP_ROLE_CENTRAL */
 151:Generated_Source\PSoC4/BLE_1.c **** 
 152:Generated_Source\PSoC4/BLE_1.c ****     CyBle_ServiceInit();
 153:Generated_Source\PSoC4/BLE_1.c **** 
 154:Generated_Source\PSoC4/BLE_1.c ****     #if((CYBLE_GAP_ROLE_PERIPHERAL || CYBLE_GAP_ROLE_CENTRAL) && (CYBLE_BONDING_REQUIREMENT == CYBL
 155:Generated_Source\PSoC4/BLE_1.c ****         cyBle_pendingFlashWrite = 0u;
 156:Generated_Source\PSoC4/BLE_1.c ****         cyBle_peerBonding = CYBLE_GAP_BONDING_NONE;
 157:Generated_Source\PSoC4/BLE_1.c ****     #endif  /* (CYBLE_BONDING_REQUIREMENT == CYBLE_BONDING_YES) */
 158:Generated_Source\PSoC4/BLE_1.c **** 
 159:Generated_Source\PSoC4/BLE_1.c **** }
 160:Generated_Source\PSoC4/BLE_1.c **** 
 161:Generated_Source\PSoC4/BLE_1.c **** 
 162:Generated_Source\PSoC4/BLE_1.c **** /******************************************************************************
 163:Generated_Source\PSoC4/BLE_1.c **** * Function Name: CyBle_ServiceInit
 164:Generated_Source\PSoC4/BLE_1.c **** ***************************************************************************//**
 165:Generated_Source\PSoC4/BLE_1.c **** * 
 166:Generated_Source\PSoC4/BLE_1.c **** *  Initializes all included services.
 167:Generated_Source\PSoC4/BLE_1.c **** * 
 168:Generated_Source\PSoC4/BLE_1.c **** * \return
 169:Generated_Source\PSoC4/BLE_1.c **** *  None
 170:Generated_Source\PSoC4/BLE_1.c **** * 
 171:Generated_Source\PSoC4/BLE_1.c **** ******************************************************************************/
 172:Generated_Source\PSoC4/BLE_1.c **** void CyBle_ServiceInit(void)
 173:Generated_Source\PSoC4/BLE_1.c **** {
  28              		.loc 1 173 0
  29              		.cfi_startproc
  30              		@ args = 0, pretend = 0, frame = 0
  31              		@ frame_needed = 0, uses_anonymous_args = 0
  32 0000 10B5     		push	{r4, lr}
  33              		.cfi_def_cfa_offset 8
  34              		.cfi_offset 4, -8
  35              		.cfi_offset 14, -4
 174:Generated_Source\PSoC4/BLE_1.c ****     #if(CYBLE_GATT_ROLE_CLIENT)
 175:Generated_Source\PSoC4/BLE_1.c ****         /* Check service range before clearing to support partial discovery */
 176:Generated_Source\PSoC4/BLE_1.c ****         if(cyBle_serverInfo[CYBLE_SRVI_GAP].range.startHandle == CYBLE_GATT_INVALID_ATTR_HANDLE_VAL
  36              		.loc 1 176 0
  37 0002 0A4B     		ldr	r3, .L4
  38 0004 1B88     		ldrh	r3, [r3]
  39 0006 002B     		cmp	r3, #0
  40 0008 04D1     		bne	.L2
 177:Generated_Source\PSoC4/BLE_1.c ****         {
 178:Generated_Source\PSoC4/BLE_1.c ****             (void)memset(&cyBle_gapc, 0, sizeof(cyBle_gapc));
  41              		.loc 1 178 0
  42 000a 0E22     		movs	r2, #14
  43 000c 0021     		movs	r1, #0
  44 000e 0848     		ldr	r0, .L4+4
  45 0010 FFF7FEFF 		bl	memset
  46              	.LVL0:
  47              	.L2:
 179:Generated_Source\PSoC4/BLE_1.c ****         }
 180:Generated_Source\PSoC4/BLE_1.c ****         if(cyBle_serverInfo[CYBLE_SRVI_GATT].range.startHandle == CYBLE_GATT_INVALID_ATTR_HANDLE_VA
  48              		.loc 1 180 0
ARM GAS  C:\Users\jon\AppData\Local\Temp\cciWBaFQ.s 			page 5


  49 0014 054B     		ldr	r3, .L4
  50 0016 DB88     		ldrh	r3, [r3, #6]
  51 0018 002B     		cmp	r3, #0
  52 001a 04D1     		bne	.L3
 181:Generated_Source\PSoC4/BLE_1.c ****         {
 182:Generated_Source\PSoC4/BLE_1.c ****             (void)memset(&cyBle_gattc, 0, sizeof(cyBle_gattc));
  53              		.loc 1 182 0
  54 001c 0622     		movs	r2, #6
  55 001e 0021     		movs	r1, #0
  56 0020 0448     		ldr	r0, .L4+8
  57 0022 FFF7FEFF 		bl	memset
  58              	.LVL1:
  59              	.L3:
 183:Generated_Source\PSoC4/BLE_1.c ****         }
 184:Generated_Source\PSoC4/BLE_1.c ****     #endif /* CYBLE_GATT_ROLE_CLIENT */
 185:Generated_Source\PSoC4/BLE_1.c **** 
 186:Generated_Source\PSoC4/BLE_1.c ****    	#ifdef CYBLE_AIOS
 187:Generated_Source\PSoC4/BLE_1.c ****         CyBle_AiosInit();
 188:Generated_Source\PSoC4/BLE_1.c ****     #endif /* CYBLE_AIOS */
 189:Generated_Source\PSoC4/BLE_1.c **** 
 190:Generated_Source\PSoC4/BLE_1.c **** 	#ifdef CYBLE_ANCS
 191:Generated_Source\PSoC4/BLE_1.c ****         CyBle_AncsInit();
 192:Generated_Source\PSoC4/BLE_1.c ****     #endif /* CYBLE_ANCS */
 193:Generated_Source\PSoC4/BLE_1.c **** 	
 194:Generated_Source\PSoC4/BLE_1.c ****     #ifdef CYBLE_ANS
 195:Generated_Source\PSoC4/BLE_1.c ****         CyBle_AnsInit();
 196:Generated_Source\PSoC4/BLE_1.c ****     #endif /* CYBLE_ANS */
 197:Generated_Source\PSoC4/BLE_1.c ****     
 198:Generated_Source\PSoC4/BLE_1.c ****     #ifdef CYBLE_BAS
 199:Generated_Source\PSoC4/BLE_1.c ****         CyBle_BasInit();
 200:Generated_Source\PSoC4/BLE_1.c ****     #endif /* CYBLE_BAS */
 201:Generated_Source\PSoC4/BLE_1.c ****     
 202:Generated_Source\PSoC4/BLE_1.c ****     #ifdef CYBLE_BCS
 203:Generated_Source\PSoC4/BLE_1.c ****         CyBle_BcsInit();
 204:Generated_Source\PSoC4/BLE_1.c ****     #endif /* CYBLE_BCS */
 205:Generated_Source\PSoC4/BLE_1.c **** 
 206:Generated_Source\PSoC4/BLE_1.c ****     #ifdef CYBLE_BLS
 207:Generated_Source\PSoC4/BLE_1.c ****         CyBle_BlsInit();
 208:Generated_Source\PSoC4/BLE_1.c ****     #endif /* CYBLE_BLS */
 209:Generated_Source\PSoC4/BLE_1.c ****     
 210:Generated_Source\PSoC4/BLE_1.c ****     #ifdef CYBLE_BMS
 211:Generated_Source\PSoC4/BLE_1.c ****         CyBle_BmsInit();
 212:Generated_Source\PSoC4/BLE_1.c ****     #endif /* CYBLE_BMS */
 213:Generated_Source\PSoC4/BLE_1.c ****     
 214:Generated_Source\PSoC4/BLE_1.c ****     #ifdef CYBLE_CGMS
 215:Generated_Source\PSoC4/BLE_1.c ****         CyBle_CgmsInit();
 216:Generated_Source\PSoC4/BLE_1.c ****     #endif /* CYBLE_CGMS */
 217:Generated_Source\PSoC4/BLE_1.c **** 
 218:Generated_Source\PSoC4/BLE_1.c ****     #ifdef CYBLE_CPS
 219:Generated_Source\PSoC4/BLE_1.c ****         CyBle_CpsInit();
 220:Generated_Source\PSoC4/BLE_1.c ****     #endif /* CYBLE_CPS */
 221:Generated_Source\PSoC4/BLE_1.c **** 
 222:Generated_Source\PSoC4/BLE_1.c ****     #ifdef CYBLE_CSCS
 223:Generated_Source\PSoC4/BLE_1.c ****         CyBle_CscsInit();
 224:Generated_Source\PSoC4/BLE_1.c ****     #endif /* CYBLE_CSCS */
 225:Generated_Source\PSoC4/BLE_1.c ****     
 226:Generated_Source\PSoC4/BLE_1.c ****     #ifdef CYBLE_CTS
ARM GAS  C:\Users\jon\AppData\Local\Temp\cciWBaFQ.s 			page 6


 227:Generated_Source\PSoC4/BLE_1.c ****         CyBle_CtsInit();
 228:Generated_Source\PSoC4/BLE_1.c ****     #endif /* CYBLE_CTS */
 229:Generated_Source\PSoC4/BLE_1.c **** 
 230:Generated_Source\PSoC4/BLE_1.c ****     #ifdef CYBLE_CUSTOM
 231:Generated_Source\PSoC4/BLE_1.c ****         CyBle_CustomInit();
  60              		.loc 1 231 0
  61 0026 FFF7FEFF 		bl	CyBle_CustomInit
  62              	.LVL2:
 232:Generated_Source\PSoC4/BLE_1.c ****     #endif /* CYBLE_CUSTOM */
 233:Generated_Source\PSoC4/BLE_1.c **** 
 234:Generated_Source\PSoC4/BLE_1.c ****     #ifdef CYBLE_DIS
 235:Generated_Source\PSoC4/BLE_1.c ****         CyBle_DisInit();
 236:Generated_Source\PSoC4/BLE_1.c ****     #endif /* CYBLE_DIS */
 237:Generated_Source\PSoC4/BLE_1.c **** 
 238:Generated_Source\PSoC4/BLE_1.c ****     #ifdef CYBLE_ESS
 239:Generated_Source\PSoC4/BLE_1.c ****         CyBle_EssInit();
 240:Generated_Source\PSoC4/BLE_1.c ****     #endif /* CYBLE_ESS */
 241:Generated_Source\PSoC4/BLE_1.c ****     
 242:Generated_Source\PSoC4/BLE_1.c ****     #ifdef CYBLE_GLS
 243:Generated_Source\PSoC4/BLE_1.c ****         CyBle_GlsInit();
 244:Generated_Source\PSoC4/BLE_1.c ****     #endif /* CYBLE_GLS */
 245:Generated_Source\PSoC4/BLE_1.c ****     
 246:Generated_Source\PSoC4/BLE_1.c ****     #ifdef CYBLE_HIDS
 247:Generated_Source\PSoC4/BLE_1.c ****         CyBle_HidsInit();
 248:Generated_Source\PSoC4/BLE_1.c ****     #endif /* CYBLE_HIDS */
 249:Generated_Source\PSoC4/BLE_1.c **** 
 250:Generated_Source\PSoC4/BLE_1.c ****     #ifdef CYBLE_HPS
 251:Generated_Source\PSoC4/BLE_1.c ****         CyBle_HpsInit();
 252:Generated_Source\PSoC4/BLE_1.c ****     #endif /* CYBLE_HPS */
 253:Generated_Source\PSoC4/BLE_1.c **** 
 254:Generated_Source\PSoC4/BLE_1.c ****     #ifdef CYBLE_HRS
 255:Generated_Source\PSoC4/BLE_1.c ****         CyBle_HrsInit();
 256:Generated_Source\PSoC4/BLE_1.c ****     #endif /* CYBLE_HRS */
 257:Generated_Source\PSoC4/BLE_1.c ****     
 258:Generated_Source\PSoC4/BLE_1.c ****     #ifdef CYBLE_HTS
 259:Generated_Source\PSoC4/BLE_1.c ****         CyBle_HtsInit();
 260:Generated_Source\PSoC4/BLE_1.c ****     #endif /* CYBLE_RSCS */
 261:Generated_Source\PSoC4/BLE_1.c **** 
 262:Generated_Source\PSoC4/BLE_1.c ****     #ifdef CYBLE_IAS
 263:Generated_Source\PSoC4/BLE_1.c ****         CyBle_IasInit();
 264:Generated_Source\PSoC4/BLE_1.c ****     #endif /* CYBLE_IAS */
 265:Generated_Source\PSoC4/BLE_1.c **** 
 266:Generated_Source\PSoC4/BLE_1.c ****     #ifdef CYBLE_IPS
 267:Generated_Source\PSoC4/BLE_1.c ****         CyBle_IpsInit();
 268:Generated_Source\PSoC4/BLE_1.c ****     #endif /* CYBLE_IPS */
 269:Generated_Source\PSoC4/BLE_1.c ****     
 270:Generated_Source\PSoC4/BLE_1.c ****     #ifdef CYBLE_LLS
 271:Generated_Source\PSoC4/BLE_1.c ****         CyBle_LlsInit();
 272:Generated_Source\PSoC4/BLE_1.c ****     #endif /* CYBLE_LLS */
 273:Generated_Source\PSoC4/BLE_1.c **** 
 274:Generated_Source\PSoC4/BLE_1.c ****     #ifdef CYBLE_LNS
 275:Generated_Source\PSoC4/BLE_1.c ****         CyBle_LnsInit();
 276:Generated_Source\PSoC4/BLE_1.c ****     #endif /* CYBLE_LNS */
 277:Generated_Source\PSoC4/BLE_1.c ****     
 278:Generated_Source\PSoC4/BLE_1.c ****     #ifdef CYBLE_NDCS
 279:Generated_Source\PSoC4/BLE_1.c ****         CyBle_NdcsInit();
 280:Generated_Source\PSoC4/BLE_1.c ****     #endif /* CYBLE_NDCS */
ARM GAS  C:\Users\jon\AppData\Local\Temp\cciWBaFQ.s 			page 7


 281:Generated_Source\PSoC4/BLE_1.c ****     
 282:Generated_Source\PSoC4/BLE_1.c ****     #ifdef CYBLE_PASS
 283:Generated_Source\PSoC4/BLE_1.c ****         CyBle_PassInit();
 284:Generated_Source\PSoC4/BLE_1.c ****     #endif /* CYBLE_PASS */
 285:Generated_Source\PSoC4/BLE_1.c ****     
 286:Generated_Source\PSoC4/BLE_1.c ****     #ifdef CYBLE_PLXS
 287:Generated_Source\PSoC4/BLE_1.c ****         CyBle_PlxsInit();
 288:Generated_Source\PSoC4/BLE_1.c ****     #endif /* CYBLE_PLXS */
 289:Generated_Source\PSoC4/BLE_1.c ****     
 290:Generated_Source\PSoC4/BLE_1.c ****     #ifdef CYBLE_RSCS
 291:Generated_Source\PSoC4/BLE_1.c ****         CyBle_RscsInit();
 292:Generated_Source\PSoC4/BLE_1.c ****     #endif /* CYBLE_RSCS */
 293:Generated_Source\PSoC4/BLE_1.c **** 
 294:Generated_Source\PSoC4/BLE_1.c ****     #ifdef CYBLE_RTUS
 295:Generated_Source\PSoC4/BLE_1.c ****         CyBle_RtusInit();
 296:Generated_Source\PSoC4/BLE_1.c ****     #endif /* CYBLE_RTUS */
 297:Generated_Source\PSoC4/BLE_1.c **** 
 298:Generated_Source\PSoC4/BLE_1.c ****     #ifdef CYBLE_SCPS
 299:Generated_Source\PSoC4/BLE_1.c ****         CyBle_ScpsInit();
 300:Generated_Source\PSoC4/BLE_1.c ****     #endif /* CYBLE_SCPS */
 301:Generated_Source\PSoC4/BLE_1.c ****     
 302:Generated_Source\PSoC4/BLE_1.c ****     #ifdef CYBLE_TPS
 303:Generated_Source\PSoC4/BLE_1.c ****         CyBle_TpsInit();
 304:Generated_Source\PSoC4/BLE_1.c ****     #endif /* CYBLE_TPS */
 305:Generated_Source\PSoC4/BLE_1.c ****     
 306:Generated_Source\PSoC4/BLE_1.c ****     #ifdef CYBLE_UDS
 307:Generated_Source\PSoC4/BLE_1.c ****         CyBle_UdsInit();
 308:Generated_Source\PSoC4/BLE_1.c ****     #endif /* CYBLE_UDS */
 309:Generated_Source\PSoC4/BLE_1.c **** 
 310:Generated_Source\PSoC4/BLE_1.c ****     #ifdef CYBLE_WPTS
 311:Generated_Source\PSoC4/BLE_1.c ****         CyBle_WptsInit();
 312:Generated_Source\PSoC4/BLE_1.c ****     #endif /* CYBLE_WPTS */
 313:Generated_Source\PSoC4/BLE_1.c **** 
 314:Generated_Source\PSoC4/BLE_1.c ****     #ifdef CYBLE_WSS
 315:Generated_Source\PSoC4/BLE_1.c ****         CyBle_WssInit();
 316:Generated_Source\PSoC4/BLE_1.c ****     #endif /* CYBLE_WSS */
 317:Generated_Source\PSoC4/BLE_1.c **** }
  63              		.loc 1 317 0
  64              		@ sp needed
  65 002a 10BD     		pop	{r4, pc}
  66              	.L5:
  67              		.align	2
  68              	.L4:
  69 002c 00000000 		.word	cyBle_serverInfo
  70 0030 00000000 		.word	cyBle_gapc
  71 0034 00000000 		.word	cyBle_gattc
  72              		.cfi_endproc
  73              	.LFE3:
  74              		.size	CyBle_ServiceInit, .-CyBle_ServiceInit
  75              		.section	.text.CyBle_Init,"ax",%progbits
  76              		.align	2
  77              		.global	CyBle_Init
  78              		.code	16
  79              		.thumb_func
  80              		.type	CyBle_Init, %function
  81              	CyBle_Init:
  82              	.LFB2:
ARM GAS  C:\Users\jon\AppData\Local\Temp\cciWBaFQ.s 			page 8


 124:Generated_Source\PSoC4/BLE_1.c ****     cyBle_eventHandlerFlag = 0u;
  83              		.loc 1 124 0
  84              		.cfi_startproc
  85              		@ args = 0, pretend = 0, frame = 0
  86              		@ frame_needed = 0, uses_anonymous_args = 0
  87 0000 10B5     		push	{r4, lr}
  88              		.cfi_def_cfa_offset 8
  89              		.cfi_offset 4, -8
  90              		.cfi_offset 14, -4
 125:Generated_Source\PSoC4/BLE_1.c ****     cyBle_busyStatus = CYBLE_STACK_STATE_FREE;
  91              		.loc 1 125 0
  92 0002 0022     		movs	r2, #0
  93 0004 0F4B     		ldr	r3, .L7
  94 0006 1A70     		strb	r2, [r3]
 126:Generated_Source\PSoC4/BLE_1.c **** 
  95              		.loc 1 126 0
  96 0008 0F4B     		ldr	r3, .L7+4
  97 000a 1A70     		strb	r2, [r3]
 132:Generated_Source\PSoC4/BLE_1.c ****     #endif /* (CYBLE_GAP_ROLE_CENTRAL || CYBLE_GAP_ROLE_OBSERVER) */
  98              		.loc 1 132 0
  99 000c 0F4B     		ldr	r3, .L7+8
 100 000e 1A70     		strb	r2, [r3]
 138:Generated_Source\PSoC4/BLE_1.c ****         cyBle_connectionParameters.scanWindow = cyBle_discoveryInfo.scanWindow;
 101              		.loc 1 138 0
 102 0010 0F49     		ldr	r1, .L7+12
 103 0012 4888     		ldrh	r0, [r1, #2]
 104 0014 0F4B     		ldr	r3, .L7+16
 105 0016 1880     		strh	r0, [r3]
 139:Generated_Source\PSoC4/BLE_1.c ****         cyBle_connectionParameters.ownAddrType = cyBle_discoveryInfo.ownAddrType;
 106              		.loc 1 139 0
 107 0018 8888     		ldrh	r0, [r1, #4]
 108 001a 5880     		strh	r0, [r3, #2]
 140:Generated_Source\PSoC4/BLE_1.c ****         cyBle_connectionParameters.initiatorFilterPolicy = cyBle_discoveryInfo.scanFilterPolicy;
 109              		.loc 1 140 0
 110 001c 8879     		ldrb	r0, [r1, #6]
 111 001e 1873     		strb	r0, [r3, #12]
 141:Generated_Source\PSoC4/BLE_1.c ****         cyBle_connectionParameters.connIntvMin = CYBLE_GAPC_CONNECTION_INTERVAL_MIN;
 112              		.loc 1 141 0
 113 0020 C979     		ldrb	r1, [r1, #7]
 114 0022 1971     		strb	r1, [r3, #4]
 142:Generated_Source\PSoC4/BLE_1.c ****         cyBle_connectionParameters.connIntvMax = CYBLE_GAPC_CONNECTION_INTERVAL_MAX;
 115              		.loc 1 142 0
 116 0024 0621     		movs	r1, #6
 117 0026 D981     		strh	r1, [r3, #14]
 143:Generated_Source\PSoC4/BLE_1.c ****         cyBle_connectionParameters.connLatency = CYBLE_GAPC_CONNECTION_SLAVE_LATENCY;
 118              		.loc 1 143 0
 119 0028 2231     		adds	r1, r1, #34
 120 002a 1982     		strh	r1, [r3, #16]
 144:Generated_Source\PSoC4/BLE_1.c ****         cyBle_connectionParameters.supervisionTO = CYBLE_GAPC_CONNECTION_TIME_OUT;
 121              		.loc 1 144 0
 122 002c 5A82     		strh	r2, [r3, #18]
 145:Generated_Source\PSoC4/BLE_1.c ****         cyBle_connectionParameters.minCeLength = 0x0000u;
 123              		.loc 1 145 0
 124 002e 3C31     		adds	r1, r1, #60
 125 0030 9982     		strh	r1, [r3, #20]
 146:Generated_Source\PSoC4/BLE_1.c ****         cyBle_connectionParameters.maxCeLength = 0xFFFFu;
 126              		.loc 1 146 0
ARM GAS  C:\Users\jon\AppData\Local\Temp\cciWBaFQ.s 			page 9


 127 0032 DA82     		strh	r2, [r3, #22]
 147:Generated_Source\PSoC4/BLE_1.c ****         
 128              		.loc 1 147 0
 129 0034 013A     		subs	r2, r2, #1
 130 0036 1A83     		strh	r2, [r3, #24]
 149:Generated_Source\PSoC4/BLE_1.c ****     #endif /* CYBLE_GAP_ROLE_CENTRAL */
 131              		.loc 1 149 0
 132 0038 1F32     		adds	r2, r2, #31
 133 003a 074B     		ldr	r3, .L7+20
 134 003c 1A80     		strh	r2, [r3]
 152:Generated_Source\PSoC4/BLE_1.c **** 
 135              		.loc 1 152 0
 136 003e FFF7FEFF 		bl	CyBle_ServiceInit
 137              	.LVL3:
 159:Generated_Source\PSoC4/BLE_1.c **** 
 138              		.loc 1 159 0
 139              		@ sp needed
 140 0042 10BD     		pop	{r4, pc}
 141              	.L8:
 142              		.align	2
 143              	.L7:
 144 0044 00000000 		.word	cyBle_eventHandlerFlag
 145 0048 00000000 		.word	cyBle_busyStatus
 146 004c 00000000 		.word	cyBle_scanningIntervalType
 147 0050 00000000 		.word	.LANCHOR0
 148 0054 00000000 		.word	cyBle_connectionParameters
 149 0058 00000000 		.word	cyBle_connectingTimeout
 150              		.cfi_endproc
 151              	.LFE2:
 152              		.size	CyBle_Init, .-CyBle_Init
 153              		.section	.text.CyBle_Start,"ax",%progbits
 154              		.align	2
 155              		.global	CyBle_Start
 156              		.code	16
 157              		.thumb_func
 158              		.type	CyBle_Start, %function
 159              	CyBle_Start:
 160              	.LFB4:
 318:Generated_Source\PSoC4/BLE_1.c **** 
 319:Generated_Source\PSoC4/BLE_1.c **** 
 320:Generated_Source\PSoC4/BLE_1.c **** /******************************************************************************
 321:Generated_Source\PSoC4/BLE_1.c **** * Function Name: CyBle_Start
 322:Generated_Source\PSoC4/BLE_1.c **** ***************************************************************************//**
 323:Generated_Source\PSoC4/BLE_1.c **** * 
 324:Generated_Source\PSoC4/BLE_1.c **** *  This function initializes the BLE Stack, which consists of the BLE Stack 
 325:Generated_Source\PSoC4/BLE_1.c **** *  Manager, BLE Controller, and BLE Host modules. It takes care of initializing
 326:Generated_Source\PSoC4/BLE_1.c **** *  the Profile layer, schedulers, Timer and other platform related
 327:Generated_Source\PSoC4/BLE_1.c **** *  resources required for the BLE component. It also registers the callback 
 328:Generated_Source\PSoC4/BLE_1.c **** *  function for BLE events that will be registered in the BLE stack.
 329:Generated_Source\PSoC4/BLE_1.c **** * 
 330:Generated_Source\PSoC4/BLE_1.c **** *  Note that this function does not reset the BLE Stack.
 331:Generated_Source\PSoC4/BLE_1.c **** * 
 332:Generated_Source\PSoC4/BLE_1.c **** *  For HCI-Mode of operation, this function will not initialize the BLE Host 
 333:Generated_Source\PSoC4/BLE_1.c **** *  module.
 334:Generated_Source\PSoC4/BLE_1.c **** * 
 335:Generated_Source\PSoC4/BLE_1.c **** *  Calling this function results in the generation of CYBLE_EVT_STACK_ON event
 336:Generated_Source\PSoC4/BLE_1.c **** *  on successful initialization of the BLE Stack.
ARM GAS  C:\Users\jon\AppData\Local\Temp\cciWBaFQ.s 			page 10


 337:Generated_Source\PSoC4/BLE_1.c **** * 
 338:Generated_Source\PSoC4/BLE_1.c **** *  \param callbackFunc: Event callback function to receive events from BLE stack.
 339:Generated_Source\PSoC4/BLE_1.c **** *   CYBLE_CALLBACK_T is a function pointer type.
 340:Generated_Source\PSoC4/BLE_1.c **** * 
 341:Generated_Source\PSoC4/BLE_1.c **** * \return
 342:Generated_Source\PSoC4/BLE_1.c **** *  CYBLE_API_RESULT_T : Return value indicates if the function succeeded or 
 343:Generated_Source\PSoC4/BLE_1.c **** *  failed. Following are the possible error codes.
 344:Generated_Source\PSoC4/BLE_1.c **** * 
 345:Generated_Source\PSoC4/BLE_1.c **** *   <table>
 346:Generated_Source\PSoC4/BLE_1.c **** *  	  <tr>
 347:Generated_Source\PSoC4/BLE_1.c **** *       <th>Error codes</th>
 348:Generated_Source\PSoC4/BLE_1.c **** *       <th>Description</th>
 349:Generated_Source\PSoC4/BLE_1.c **** *     </tr>
 350:Generated_Source\PSoC4/BLE_1.c **** *     <tr>
 351:Generated_Source\PSoC4/BLE_1.c **** *       <td>CYBLE_ERROR_OK</td>
 352:Generated_Source\PSoC4/BLE_1.c **** *       <td>On successful operation.</td>
 353:Generated_Source\PSoC4/BLE_1.c **** *     </tr>
 354:Generated_Source\PSoC4/BLE_1.c **** *     <tr>
 355:Generated_Source\PSoC4/BLE_1.c **** *       <td>CYBLE_ERROR_INVALID_PARAMETER</td>
 356:Generated_Source\PSoC4/BLE_1.c **** *       <td>On passing a NULL pointer to the function. 
 357:Generated_Source\PSoC4/BLE_1.c **** *		</td>
 358:Generated_Source\PSoC4/BLE_1.c **** *     </tr>
 359:Generated_Source\PSoC4/BLE_1.c **** *     <tr>
 360:Generated_Source\PSoC4/BLE_1.c **** *       <td>CYBLE_ERROR_REPEATED_ATTEMPTS</td>
 361:Generated_Source\PSoC4/BLE_1.c **** *       <td>On invoking this function more than once without calling CyBle_Shutdown() 
 362:Generated_Source\PSoC4/BLE_1.c **** *           function between calls to this function.</td>
 363:Generated_Source\PSoC4/BLE_1.c **** *     </tr>
 364:Generated_Source\PSoC4/BLE_1.c **** *     <tr>
 365:Generated_Source\PSoC4/BLE_1.c **** *       <td>CYBLE_ERROR_MEMORY_ALLOCATION_FAILED</td>
 366:Generated_Source\PSoC4/BLE_1.c **** *       <td>There is insufficient memory available.</td>
 367:Generated_Source\PSoC4/BLE_1.c **** *     </tr>
 368:Generated_Source\PSoC4/BLE_1.c **** *   </table>
 369:Generated_Source\PSoC4/BLE_1.c **** * 
 370:Generated_Source\PSoC4/BLE_1.c **** *  \globalvars
 371:Generated_Source\PSoC4/BLE_1.c **** *   The CyBle_initVar variable is used to indicate initial
 372:Generated_Source\PSoC4/BLE_1.c **** *   configuration of this component. The variable is initialized to zero (0u)
 373:Generated_Source\PSoC4/BLE_1.c **** *   and set to one (1u) the first time CyBle_Start() is called. This
 374:Generated_Source\PSoC4/BLE_1.c **** *   allows for component initialization without re-initialization in all
 375:Generated_Source\PSoC4/BLE_1.c **** *   subsequent calls to the CyBle_Start() routine.
 376:Generated_Source\PSoC4/BLE_1.c **** * 
 377:Generated_Source\PSoC4/BLE_1.c **** ******************************************************************************/
 378:Generated_Source\PSoC4/BLE_1.c **** CYBLE_API_RESULT_T CyBle_Start(CYBLE_CALLBACK_T callbackFunc)
 379:Generated_Source\PSoC4/BLE_1.c **** {
 161              		.loc 1 379 0
 162              		.cfi_startproc
 163              		@ args = 0, pretend = 0, frame = 48
 164              		@ frame_needed = 0, uses_anonymous_args = 0
 165              	.LVL4:
 166 0000 10B5     		push	{r4, lr}
 167              		.cfi_def_cfa_offset 8
 168              		.cfi_offset 4, -8
 169              		.cfi_offset 14, -4
 170 0002 90B0     		sub	sp, sp, #64
 171              		.cfi_def_cfa_offset 72
 172 0004 0400     		movs	r4, r0
 173              	.LVL5:
 380:Generated_Source\PSoC4/BLE_1.c ****     CYBLE_API_RESULT_T apiResult = CYBLE_ERROR_OK;
ARM GAS  C:\Users\jon\AppData\Local\Temp\cciWBaFQ.s 			page 11


 381:Generated_Source\PSoC4/BLE_1.c ****     
 382:Generated_Source\PSoC4/BLE_1.c ****     #if(CYBLE_MODE_PROFILE)
 383:Generated_Source\PSoC4/BLE_1.c ****     
 384:Generated_Source\PSoC4/BLE_1.c ****     CYBLE_STK_APP_DATA_BUFF_T cyBle_stackDataBuff[CYBLE_STACK_APP_MIN_POOL] = 
 174              		.loc 1 384 0
 175 0006 1422     		movs	r2, #20
 176 0008 2049     		ldr	r1, .L13
 177 000a 0BA8     		add	r0, sp, #44
 178              	.LVL6:
 179 000c FFF7FEFF 		bl	memcpy
 180              	.LVL7:
 385:Generated_Source\PSoC4/BLE_1.c ****     {
 386:Generated_Source\PSoC4/BLE_1.c ****         {CYBLE_GATT_MTU_PLUS_L2CAP_MEM_EXT, CYBLE_GATT_MTU_BUFF_COUNT + CYBLE_GATT_MAX_ATTR_BUFF_CO
 387:Generated_Source\PSoC4/BLE_1.c ****         {CYBLE_L2CAP_PSM_PLUS_L2CAP_MEM_EXT, CYBLE_L2CAP_PSM_COUNT},
 388:Generated_Source\PSoC4/BLE_1.c ****         {CYBLE_L2CAP_CBFC_PLUS_L2CAP_MEM_EXT, 2u * CYBLE_L2CAP_LOGICAL_CHANNEL_COUNT},
 389:Generated_Source\PSoC4/BLE_1.c ****         {CYBLE_L2CAP_MTU_PLUS_L2CAP_MEM_EXT, CYBLE_L2CAP_LOGICAL_CHANNEL_COUNT},
 390:Generated_Source\PSoC4/BLE_1.c ****         {CYBLE_L2CAP_MPS_PLUS_L2CAP_MEM_EXT, CYBLE_L2CAP_LOGICAL_CHANNEL_COUNT * (CYBLE_L2CAP_MTU_M
 391:Generated_Source\PSoC4/BLE_1.c ****     }; 
 392:Generated_Source\PSoC4/BLE_1.c **** 
 393:Generated_Source\PSoC4/BLE_1.c ****     #endif /* CYBLE_MODE_PROFILE */
 394:Generated_Source\PSoC4/BLE_1.c ****     
 395:Generated_Source\PSoC4/BLE_1.c ****     /* If not initialized then initialize all the required hardware and software */
 396:Generated_Source\PSoC4/BLE_1.c ****     if(cyBle_initVar == 0u)
 181              		.loc 1 396 0
 182 0010 1F4B     		ldr	r3, .L13+4
 183 0012 1B78     		ldrb	r3, [r3]
 184 0014 002B     		cmp	r3, #0
 185 0016 04D1     		bne	.L10
 397:Generated_Source\PSoC4/BLE_1.c ****     {
 398:Generated_Source\PSoC4/BLE_1.c ****         CyBle_Init();
 186              		.loc 1 398 0
 187 0018 FFF7FEFF 		bl	CyBle_Init
 188              	.LVL8:
 399:Generated_Source\PSoC4/BLE_1.c ****         cyBle_initVar = 1u;
 189              		.loc 1 399 0
 190 001c 0122     		movs	r2, #1
 191 001e 1C4B     		ldr	r3, .L13+4
 192 0020 1A70     		strb	r2, [r3]
 193              	.L10:
 400:Generated_Source\PSoC4/BLE_1.c ****     }
 401:Generated_Source\PSoC4/BLE_1.c ****     
 402:Generated_Source\PSoC4/BLE_1.c ****     if(callbackFunc != NULL)
 194              		.loc 1 402 0
 195 0022 002C     		cmp	r4, #0
 196 0024 2FD0     		beq	.L12
 403:Generated_Source\PSoC4/BLE_1.c ****     {
 404:Generated_Source\PSoC4/BLE_1.c ****         CyBle_ApplCallback = callbackFunc;
 197              		.loc 1 404 0
 198 0026 1B4B     		ldr	r3, .L13+8
 199 0028 1C60     		str	r4, [r3]
 200              	.LBB2:
 405:Generated_Source\PSoC4/BLE_1.c ****         
 406:Generated_Source\PSoC4/BLE_1.c ****     #if(CYBLE_SHARING_MODE_EXPORT)
 407:Generated_Source\PSoC4/BLE_1.c ****         if(cyBle_stackMemoryRam == NULL)
 408:Generated_Source\PSoC4/BLE_1.c ****         {
 409:Generated_Source\PSoC4/BLE_1.c ****             cyBle_stackMemoryRam = (uint8 *)malloc(CYBLE_STACK_RAM_SIZE);
 410:Generated_Source\PSoC4/BLE_1.c ****             if(cyBle_stackMemoryRam == NULL)
ARM GAS  C:\Users\jon\AppData\Local\Temp\cciWBaFQ.s 			page 12


 411:Generated_Source\PSoC4/BLE_1.c ****             {
 412:Generated_Source\PSoC4/BLE_1.c ****                 apiResult = CYBLE_ERROR_MEMORY_ALLOCATION_FAILED;
 413:Generated_Source\PSoC4/BLE_1.c ****             }
 414:Generated_Source\PSoC4/BLE_1.c ****         }
 415:Generated_Source\PSoC4/BLE_1.c ****     #endif /* CYBLE_SHARING_MODE_EXPORT */
 416:Generated_Source\PSoC4/BLE_1.c ****         if(apiResult == CYBLE_ERROR_OK)
 417:Generated_Source\PSoC4/BLE_1.c ****         {
 418:Generated_Source\PSoC4/BLE_1.c ****             CYBLE_DLE_CONFIG_PARAM_T dleConfigParams;
 419:Generated_Source\PSoC4/BLE_1.c ****             CYBLE_PRIVACY_1_2_CONFIG_PARAM_T privacyConfigParams;
 420:Generated_Source\PSoC4/BLE_1.c ****             CYBLE_STACK_CONFIG_PARAM_T stackConfig;
 421:Generated_Source\PSoC4/BLE_1.c ****             uint16 featureHeapReq;
 422:Generated_Source\PSoC4/BLE_1.c ****             
 423:Generated_Source\PSoC4/BLE_1.c ****             stackConfig.privacyConfig = &privacyConfigParams;
 201              		.loc 1 423 0
 202 002a 08A8     		add	r0, sp, #32
 203 002c 05AA     		add	r2, sp, #20
 204 002e 4260     		str	r2, [r0, #4]
 424:Generated_Source\PSoC4/BLE_1.c ****             stackConfig.dleConfig = &dleConfigParams;
 205              		.loc 1 424 0
 206 0030 06AB     		add	r3, sp, #24
 207 0032 0893     		str	r3, [sp, #32]
 425:Generated_Source\PSoC4/BLE_1.c ****             
 426:Generated_Source\PSoC4/BLE_1.c ****             /* Configure default BLE 4.1 features and enabled 4.2 features */
 427:Generated_Source\PSoC4/BLE_1.c ****             stackConfig.feature_mask = CYBLE_DLE_FEATURE | CYBLE_LL_PRIVACY_FEATURE | 
 208              		.loc 1 427 0
 209 0034 0021     		movs	r1, #0
 210 0036 0181     		strh	r1, [r0, #8]
 428:Generated_Source\PSoC4/BLE_1.c ****                                        CYBLE_SECURE_CONN_FEATURE;
 429:Generated_Source\PSoC4/BLE_1.c **** 
 430:Generated_Source\PSoC4/BLE_1.c ****             /* Configure DLE */
 431:Generated_Source\PSoC4/BLE_1.c ****             dleConfigParams.dleMaxTxCapability = CYBLE_LL_MAX_TX_PAYLOAD_SIZE;
 211              		.loc 1 431 0
 212 0038 1B31     		adds	r1, r1, #27
 213 003a 1980     		strh	r1, [r3]
 432:Generated_Source\PSoC4/BLE_1.c ****             dleConfigParams.dleMaxRxCapability = CYBLE_LL_MAX_RX_PAYLOAD_SIZE;
 214              		.loc 1 432 0
 215 003c 5980     		strh	r1, [r3, #2]
 433:Generated_Source\PSoC4/BLE_1.c ****             dleConfigParams.dleNumTxBuffer = CYBLE_LL_DEFAULT_NUM_ACL_TX_PACKETS;
 216              		.loc 1 433 0
 217 003e 1739     		subs	r1, r1, #23
 218 0040 1971     		strb	r1, [r3, #4]
 434:Generated_Source\PSoC4/BLE_1.c ****         #if(CYBLE_DLE_FEATURE_ENABLED)
 435:Generated_Source\PSoC4/BLE_1.c ****             CyBle_EnableDleFeature();              /* Enable DLE code in stack */
 436:Generated_Source\PSoC4/BLE_1.c ****         #endif /* CYBLE_DLE_FEATURE_ENABLED */
 437:Generated_Source\PSoC4/BLE_1.c ****         
 438:Generated_Source\PSoC4/BLE_1.c ****             /* Configure LL Privacy */
 439:Generated_Source\PSoC4/BLE_1.c ****             privacyConfigParams.resolvingListSize = CYBLE_MAX_RESOLVABLE_DEVICES;
 219              		.loc 1 439 0
 220 0042 0823     		movs	r3, #8
 221 0044 1370     		strb	r3, [r2]
 440:Generated_Source\PSoC4/BLE_1.c ****         #if(CYBLE_LL_PRIVACY_FEATURE_ENABLED)
 441:Generated_Source\PSoC4/BLE_1.c ****             CyBle_EnablePrivacyFeature();          /* Enable LL Privacy code in stack */
 442:Generated_Source\PSoC4/BLE_1.c ****         #endif /* CYBLE_LL_PRIVACY_FEATURE_ENABLED */
 443:Generated_Source\PSoC4/BLE_1.c **** 
 444:Generated_Source\PSoC4/BLE_1.c ****             apiResult = CyBle_StackSetFeatureConfig(&stackConfig, &featureHeapReq);
 222              		.loc 1 444 0
 223 0046 1231     		adds	r1, r1, #18
ARM GAS  C:\Users\jon\AppData\Local\Temp\cciWBaFQ.s 			page 13


 224 0048 6944     		add	r1, r1, sp
 225 004a FFF7FEFF 		bl	CyBle_StackSetFeatureConfig
 226              	.LVL9:
 227              	.LBE2:
 445:Generated_Source\PSoC4/BLE_1.c ****             }
 446:Generated_Source\PSoC4/BLE_1.c ****     
 447:Generated_Source\PSoC4/BLE_1.c ****         if(apiResult == CYBLE_ERROR_OK)
 228              		.loc 1 447 0
 229 004e 0028     		cmp	r0, #0
 230 0050 1AD1     		bne	.L11
 448:Generated_Source\PSoC4/BLE_1.c ****         {
 449:Generated_Source\PSoC4/BLE_1.c ****         
 450:Generated_Source\PSoC4/BLE_1.c ****         #if(CYBLE_MODE_PROFILE)
 451:Generated_Source\PSoC4/BLE_1.c ****             #if(CYBLE_BONDING_REQUIREMENT == CYBLE_BONDING_YES)
 452:Generated_Source\PSoC4/BLE_1.c ****                 apiResult = CyBle_StackInit(&CyBle_EventHandler, cyBle_stackMemoryRam, 
 453:Generated_Source\PSoC4/BLE_1.c ****                     CYBLE_STACK_RAM_SIZE - CYBLE_GATT_PREPARE_WRITE_BUFF_LEN, cyBle_stackDataBuff, 
 454:Generated_Source\PSoC4/BLE_1.c ****                     CYBLE_STACK_APP_MIN_POOL, cyBle_flashStorage.stackFlashptr, CYBLE_STACK_FLASH_S
 455:Generated_Source\PSoC4/BLE_1.c ****             #else
 456:Generated_Source\PSoC4/BLE_1.c ****                 apiResult = CyBle_StackInit(&CyBle_EventHandler, cyBle_stackMemoryRam, 
 231              		.loc 1 456 0
 232 0052 0023     		movs	r3, #0
 233 0054 0293     		str	r3, [sp, #8]
 234 0056 0193     		str	r3, [sp, #4]
 235 0058 0533     		adds	r3, r3, #5
 236 005a 0093     		str	r3, [sp]
 237 005c 0BAB     		add	r3, sp, #44
 238 005e AE22     		movs	r2, #174
 239 0060 1201     		lsls	r2, r2, #4
 240 0062 0D49     		ldr	r1, .L13+12
 241 0064 0D48     		ldr	r0, .L13+16
 242              	.LVL10:
 243 0066 FFF7FEFF 		bl	CyBle_StackInit
 244              	.LVL11:
 457:Generated_Source\PSoC4/BLE_1.c ****                     CYBLE_STACK_RAM_SIZE - CYBLE_GATT_PREPARE_WRITE_BUFF_LEN, cyBle_stackDataBuff, 
 458:Generated_Source\PSoC4/BLE_1.c ****                     CYBLE_STACK_APP_MIN_POOL, NULL, 0u);
 459:Generated_Source\PSoC4/BLE_1.c ****             #endif  /* CYBLE_BONDING_REQUIREMENT == CYBLE_BONDING_YES */
 460:Generated_Source\PSoC4/BLE_1.c ****         #else /* HCI mode */
 461:Generated_Source\PSoC4/BLE_1.c ****             /* The following will perform preparation to use HCI over UART or over
 462:Generated_Source\PSoC4/BLE_1.c ****                software. But the following fucntions will not initialize the HCI
 463:Generated_Source\PSoC4/BLE_1.c ****                Transport. This will be done as part of Stack initialization, so
 464:Generated_Source\PSoC4/BLE_1.c ****                the functions should be called prior CyBle_StackInit().
 465:Generated_Source\PSoC4/BLE_1.c ****             */
 466:Generated_Source\PSoC4/BLE_1.c ****             #if (CYBLE_HCI_TYPE == CYBLE_HCI_OVER_UART)
 467:Generated_Source\PSoC4/BLE_1.c ****                 CyBle_HciUartTransportEnable();
 468:Generated_Source\PSoC4/BLE_1.c ****             #else
 469:Generated_Source\PSoC4/BLE_1.c ****                 CyBle_HciSoftTransportEnable();
 470:Generated_Source\PSoC4/BLE_1.c ****             #endif /* (CYBLE_HCI_TYPE == CYBLE_HCI_OVER_UART) */
 471:Generated_Source\PSoC4/BLE_1.c ****             /* This will initialize BLE stack for HCI mode operation */
 472:Generated_Source\PSoC4/BLE_1.c ****             apiResult = CyBle_StackInit(&CyBle_EventHandler, cyBle_stackMemoryRam, CYBLE_STACK_RAM_
 473:Generated_Source\PSoC4/BLE_1.c ****                 NULL, 0u, NULL, 0u);
 474:Generated_Source\PSoC4/BLE_1.c ****         #endif /* CYBLE_MODE_PROFILE */
 475:Generated_Source\PSoC4/BLE_1.c **** 
 476:Generated_Source\PSoC4/BLE_1.c ****             if(apiResult == CYBLE_ERROR_OK)
 245              		.loc 1 476 0
 246 006a 0028     		cmp	r0, #0
 247 006c 0CD1     		bne	.L11
 477:Generated_Source\PSoC4/BLE_1.c ****             {
ARM GAS  C:\Users\jon\AppData\Local\Temp\cciWBaFQ.s 			page 14


 478:Generated_Source\PSoC4/BLE_1.c ****                 CyBle_SetState(CYBLE_STATE_INITIALIZING);
 248              		.loc 1 478 0
 249 006e 0122     		movs	r2, #1
 250 0070 0B4B     		ldr	r3, .L13+20
 251 0072 1A70     		strb	r2, [r3]
 479:Generated_Source\PSoC4/BLE_1.c ****                 
 480:Generated_Source\PSoC4/BLE_1.c ****             #if (CYBLE_GATT_ROLE_CLIENT)
 481:Generated_Source\PSoC4/BLE_1.c ****                 CyBle_SetClientState(CYBLE_CLIENT_STATE_DISCONNECTED);
 252              		.loc 1 481 0
 253 0074 0732     		adds	r2, r2, #7
 254 0076 0B4B     		ldr	r3, .L13+24
 255 0078 1A70     		strb	r2, [r3]
 482:Generated_Source\PSoC4/BLE_1.c ****             #endif /* CYBLE_GATT_ROLE_CLIENT */
 483:Generated_Source\PSoC4/BLE_1.c ****                 
 484:Generated_Source\PSoC4/BLE_1.c ****             #if(CYBLE_GATT_ROLE_SERVER)
 485:Generated_Source\PSoC4/BLE_1.c ****                 apiResult = CyBle_GattsDbRegister(cyBle_gattDB, CYBLE_GATT_DB_INDEX_COUNT, CYBLE_GA
 256              		.loc 1 485 0
 257 007a 043A     		subs	r2, r2, #4
 258 007c 0D21     		movs	r1, #13
 259 007e 0A48     		ldr	r0, .L13+28
 260              	.LVL12:
 261 0080 FFF7FEFF 		bl	CyBle_GattsDbRegister
 262              	.LVL13:
 263 0084 00E0     		b	.L11
 264              	.LVL14:
 265              	.L12:
 486:Generated_Source\PSoC4/BLE_1.c ****             #endif /* CYBLE_GATT_ROLE_SERVER */
 487:Generated_Source\PSoC4/BLE_1.c ****             }
 488:Generated_Source\PSoC4/BLE_1.c ****         }
 489:Generated_Source\PSoC4/BLE_1.c ****     }
 490:Generated_Source\PSoC4/BLE_1.c ****     else
 491:Generated_Source\PSoC4/BLE_1.c ****     {
 492:Generated_Source\PSoC4/BLE_1.c ****         apiResult = CYBLE_ERROR_INVALID_PARAMETER;
 266              		.loc 1 492 0
 267 0086 0120     		movs	r0, #1
 268              	.LVL15:
 269              	.L11:
 493:Generated_Source\PSoC4/BLE_1.c ****     }
 494:Generated_Source\PSoC4/BLE_1.c **** 
 495:Generated_Source\PSoC4/BLE_1.c ****     return (apiResult);
 496:Generated_Source\PSoC4/BLE_1.c **** }
 270              		.loc 1 496 0
 271 0088 10B0     		add	sp, sp, #64
 272              		@ sp needed
 273              	.LVL16:
 274 008a 10BD     		pop	{r4, pc}
 275              	.L14:
 276              		.align	2
 277              	.L13:
 278 008c 00000000 		.word	.LANCHOR1
 279 0090 00000000 		.word	.LANCHOR2
 280 0094 00000000 		.word	CyBle_ApplCallback
 281 0098 00000000 		.word	.LANCHOR3
 282 009c 00000000 		.word	CyBle_EventHandler
 283 00a0 00000000 		.word	cyBle_state
 284 00a4 00000000 		.word	cyBle_clientState
 285 00a8 00000000 		.word	cyBle_gattDB
ARM GAS  C:\Users\jon\AppData\Local\Temp\cciWBaFQ.s 			page 15


 286              		.cfi_endproc
 287              	.LFE4:
 288              		.size	CyBle_Start, .-CyBle_Start
 289              		.section	.text.CyBle_Stop,"ax",%progbits
 290              		.align	2
 291              		.global	CyBle_Stop
 292              		.code	16
 293              		.thumb_func
 294              		.type	CyBle_Stop, %function
 295              	CyBle_Stop:
 296              	.LFB5:
 497:Generated_Source\PSoC4/BLE_1.c **** 
 498:Generated_Source\PSoC4/BLE_1.c **** 
 499:Generated_Source\PSoC4/BLE_1.c **** /******************************************************************************
 500:Generated_Source\PSoC4/BLE_1.c **** * Function Name: CyBle_Stop
 501:Generated_Source\PSoC4/BLE_1.c **** ***************************************************************************//**
 502:Generated_Source\PSoC4/BLE_1.c **** * 
 503:Generated_Source\PSoC4/BLE_1.c **** *  This function stops any ongoing operation in the BLE Stack and forces the 
 504:Generated_Source\PSoC4/BLE_1.c **** *  BLE Stack to shut down. The only function that can be called after calling
 505:Generated_Source\PSoC4/BLE_1.c **** *  this function is CyBle_Start(). 
 506:Generated_Source\PSoC4/BLE_1.c **** * 
 507:Generated_Source\PSoC4/BLE_1.c **** * \return
 508:Generated_Source\PSoC4/BLE_1.c **** *  None
 509:Generated_Source\PSoC4/BLE_1.c **** * 
 510:Generated_Source\PSoC4/BLE_1.c **** ******************************************************************************/
 511:Generated_Source\PSoC4/BLE_1.c **** void CyBle_Stop(void)
 512:Generated_Source\PSoC4/BLE_1.c **** {
 297              		.loc 1 512 0
 298              		.cfi_startproc
 299              		@ args = 0, pretend = 0, frame = 0
 300              		@ frame_needed = 0, uses_anonymous_args = 0
 301 0000 10B5     		push	{r4, lr}
 302              		.cfi_def_cfa_offset 8
 303              		.cfi_offset 4, -8
 304              		.cfi_offset 14, -4
 513:Generated_Source\PSoC4/BLE_1.c ****     CyBle_Shutdown();                         /* Stop all ongoing activities */
 305              		.loc 1 513 0
 306 0002 FFF7FEFF 		bl	CyBle_Shutdown
 307              	.LVL17:
 514:Generated_Source\PSoC4/BLE_1.c ****     CyBle_SetState(CYBLE_STATE_STOPPED);
 308              		.loc 1 514 0
 309 0006 0022     		movs	r2, #0
 310 0008 014B     		ldr	r3, .L16
 311 000a 1A70     		strb	r2, [r3]
 515:Generated_Source\PSoC4/BLE_1.c ****     #if(CYBLE_SHARING_MODE_EXPORT)
 516:Generated_Source\PSoC4/BLE_1.c ****         if(cyBle_stackMemoryRam != NULL)
 517:Generated_Source\PSoC4/BLE_1.c ****         {
 518:Generated_Source\PSoC4/BLE_1.c ****             free(cyBle_stackMemoryRam);
 519:Generated_Source\PSoC4/BLE_1.c ****         }
 520:Generated_Source\PSoC4/BLE_1.c ****     #endif /* CYBLE_SHARING_MODE_EXPORT */
 521:Generated_Source\PSoC4/BLE_1.c **** }
 312              		.loc 1 521 0
 313              		@ sp needed
 314 000c 10BD     		pop	{r4, pc}
 315              	.L17:
 316 000e C046     		.align	2
 317              	.L16:
ARM GAS  C:\Users\jon\AppData\Local\Temp\cciWBaFQ.s 			page 16


 318 0010 00000000 		.word	cyBle_state
 319              		.cfi_endproc
 320              	.LFE5:
 321              		.size	CyBle_Stop, .-CyBle_Stop
 322              		.section	.text.CyBle_GapcStartScan,"ax",%progbits
 323              		.align	2
 324              		.global	CyBle_GapcStartScan
 325              		.code	16
 326              		.thumb_func
 327              		.type	CyBle_GapcStartScan, %function
 328              	CyBle_GapcStartScan:
 329              	.LFB6:
 522:Generated_Source\PSoC4/BLE_1.c **** 
 523:Generated_Source\PSoC4/BLE_1.c **** 
 524:Generated_Source\PSoC4/BLE_1.c **** #if((CYBLE_GAP_ROLE_PERIPHERAL || CYBLE_GAP_ROLE_CENTRAL) && (CYBLE_BONDING_REQUIREMENT == CYBLE_BO
 525:Generated_Source\PSoC4/BLE_1.c **** 
 526:Generated_Source\PSoC4/BLE_1.c ****     
 527:Generated_Source\PSoC4/BLE_1.c **** /******************************************************************************
 528:Generated_Source\PSoC4/BLE_1.c **** * Function Name: CyBle_StoreBondingData
 529:Generated_Source\PSoC4/BLE_1.c **** ***************************************************************************//**
 530:Generated_Source\PSoC4/BLE_1.c **** * 
 531:Generated_Source\PSoC4/BLE_1.c **** *  This function writes the new bonding data from RAM to the dedicated Flash 
 532:Generated_Source\PSoC4/BLE_1.c **** *  location as defined by the component. It performs data comparing between RAM
 533:Generated_Source\PSoC4/BLE_1.c **** *  and Flash before writing to Flash. If there is no change between RAM and Flash
 534:Generated_Source\PSoC4/BLE_1.c **** *  data, then no write is performed. It writes only one flash row in one call.
 535:Generated_Source\PSoC4/BLE_1.c **** *  Application should keep calling this function till it return CYBLE_ERROR_OK. 
 536:Generated_Source\PSoC4/BLE_1.c **** *  This function is available only when Bonding requirement is selected in
 537:Generated_Source\PSoC4/BLE_1.c **** *  Security settings.    
 538:Generated_Source\PSoC4/BLE_1.c **** * 
 539:Generated_Source\PSoC4/BLE_1.c **** *  \param isForceWrite:  If value is set to 0, then stack will check if flash write 
 540:Generated_Source\PSoC4/BLE_1.c **** *                 is permissible. 
 541:Generated_Source\PSoC4/BLE_1.c **** *  
 542:Generated_Source\PSoC4/BLE_1.c **** * \return
 543:Generated_Source\PSoC4/BLE_1.c **** *  Return value is of type CYBLE_API_RESULT_T.
 544:Generated_Source\PSoC4/BLE_1.c **** *
 545:Generated_Source\PSoC4/BLE_1.c **** *   Errors codes                         | Description
 546:Generated_Source\PSoC4/BLE_1.c **** *   ----------------------------------   | ------------------------------------
 547:Generated_Source\PSoC4/BLE_1.c **** *   CYBLE_ERROR_OK                       | On successful operation
 548:Generated_Source\PSoC4/BLE_1.c **** *   CYBLE_ERROR_FLASH_WRITE_NOT_PERMITED | Flash Write is not complete
 549:Generated_Source\PSoC4/BLE_1.c **** *   CYBLE_ERROR_INVALID_PARAMETER        | Invalid input parameter  
 550:Generated_Source\PSoC4/BLE_1.c **** *   CYBLE_ERROR_FLASH_WRITE              | Error in flash Write	
 551:Generated_Source\PSoC4/BLE_1.c ****     
 552:Generated_Source\PSoC4/BLE_1.c **** *  \sideeffect
 553:Generated_Source\PSoC4/BLE_1.c **** *   For BLE devices with 128K of Flash memory this function will automatically 
 554:Generated_Source\PSoC4/BLE_1.c **** *   modify the clock settings for the device.
 555:Generated_Source\PSoC4/BLE_1.c **** *   Writing to flash requires changes to be done to the IMO (set to 48 MHz)
 556:Generated_Source\PSoC4/BLE_1.c **** *   and HFCLK (source set to IMO) settings. The configuration is restored before
 557:Generated_Source\PSoC4/BLE_1.c **** *   returning. This will impact the operation of most of the hardware in the
 558:Generated_Source\PSoC4/BLE_1.c **** *   device.
 559:Generated_Source\PSoC4/BLE_1.c **** * 
 560:Generated_Source\PSoC4/BLE_1.c **** *  \globalvars
 561:Generated_Source\PSoC4/BLE_1.c **** *   The cyBle_pendingFlashWrite variable is used to detect status
 562:Generated_Source\PSoC4/BLE_1.c **** *   of pending write to flash operation for stack data and CCCD.
 563:Generated_Source\PSoC4/BLE_1.c **** *   This function automatically clears pending bits after write operation 
 564:Generated_Source\PSoC4/BLE_1.c **** *   complete.
 565:Generated_Source\PSoC4/BLE_1.c **** *     
 566:Generated_Source\PSoC4/BLE_1.c **** ******************************************************************************/
ARM GAS  C:\Users\jon\AppData\Local\Temp\cciWBaFQ.s 			page 17


 567:Generated_Source\PSoC4/BLE_1.c **** CYBLE_API_RESULT_T CyBle_StoreBondingData(uint8 isForceWrite)
 568:Generated_Source\PSoC4/BLE_1.c **** {
 569:Generated_Source\PSoC4/BLE_1.c ****     CYBLE_API_RESULT_T apiResult = CYBLE_ERROR_OK;
 570:Generated_Source\PSoC4/BLE_1.c ****     
 571:Generated_Source\PSoC4/BLE_1.c ****     /* Store Stack data */
 572:Generated_Source\PSoC4/BLE_1.c ****     if((cyBle_pendingFlashWrite & CYBLE_PENDING_STACK_FLASH_WRITE_BIT) != 0u)
 573:Generated_Source\PSoC4/BLE_1.c ****     {
 574:Generated_Source\PSoC4/BLE_1.c ****         apiResult = CyBle_StoreStackData(isForceWrite);
 575:Generated_Source\PSoC4/BLE_1.c ****         if(apiResult == CYBLE_ERROR_OK)
 576:Generated_Source\PSoC4/BLE_1.c ****         {
 577:Generated_Source\PSoC4/BLE_1.c ****             cyBle_pendingFlashWrite &= (uint8)~CYBLE_PENDING_STACK_FLASH_WRITE_BIT;
 578:Generated_Source\PSoC4/BLE_1.c ****             /* Change apiResult if there are more pending data to store */
 579:Generated_Source\PSoC4/BLE_1.c ****             if((cyBle_pendingFlashWrite & CYBLE_PENDING_CCCD_FLASH_WRITE_BIT) != 0u)
 580:Generated_Source\PSoC4/BLE_1.c ****             {
 581:Generated_Source\PSoC4/BLE_1.c ****                 apiResult = CYBLE_ERROR_FLASH_WRITE_NOT_PERMITED;
 582:Generated_Source\PSoC4/BLE_1.c ****             }
 583:Generated_Source\PSoC4/BLE_1.c ****         }
 584:Generated_Source\PSoC4/BLE_1.c ****     }
 585:Generated_Source\PSoC4/BLE_1.c **** #if(CYBLE_GATT_DB_CCCD_COUNT != 0u)
 586:Generated_Source\PSoC4/BLE_1.c ****     /* Store CCCD values */
 587:Generated_Source\PSoC4/BLE_1.c ****     if( ((apiResult == CYBLE_ERROR_OK) || (isForceWrite != 0u)) && 
 588:Generated_Source\PSoC4/BLE_1.c ****         ((cyBle_pendingFlashWrite & CYBLE_PENDING_CCCD_FLASH_WRITE_BIT) != 0u) &&
 589:Generated_Source\PSoC4/BLE_1.c ****         (cyBle_connHandle.bdHandle <= CYBLE_GAP_MAX_BONDED_DEVICE))
 590:Generated_Source\PSoC4/BLE_1.c ****     {
 591:Generated_Source\PSoC4/BLE_1.c ****         apiResult = CyBle_StoreAppData(cyBle_attValuesCCCD, cyBle_flashStorage.attValuesCCCDFlashMe
 592:Generated_Source\PSoC4/BLE_1.c ****                         cyBle_connHandle.bdHandle], CYBLE_GATT_DB_CCCD_COUNT, isForceWrite);
 593:Generated_Source\PSoC4/BLE_1.c ****         if(apiResult == CYBLE_ERROR_OK)
 594:Generated_Source\PSoC4/BLE_1.c ****         {
 595:Generated_Source\PSoC4/BLE_1.c ****             cyBle_pendingFlashWrite &= (uint8)~CYBLE_PENDING_CCCD_FLASH_WRITE_BIT;
 596:Generated_Source\PSoC4/BLE_1.c ****         }
 597:Generated_Source\PSoC4/BLE_1.c ****     }
 598:Generated_Source\PSoC4/BLE_1.c ****     /* Clear requested CCCD values */
 599:Generated_Source\PSoC4/BLE_1.c ****     if( ((apiResult == CYBLE_ERROR_OK) || (isForceWrite != 0u)) && 
 600:Generated_Source\PSoC4/BLE_1.c ****         ((cyBle_pendingFlashWrite & CYBLE_PENDING_CCCD_FLASH_CLEAR_MASK) != 0u) )
 601:Generated_Source\PSoC4/BLE_1.c ****     {
 602:Generated_Source\PSoC4/BLE_1.c ****         if((cyBle_pendingFlashWrite & CYBLE_PENDING_CCCD_FLASH_CLEAR_ALL_BIT) != 0u)
 603:Generated_Source\PSoC4/BLE_1.c ****         {
 604:Generated_Source\PSoC4/BLE_1.c ****             /* Remove cccd values for all bonded devices */
 605:Generated_Source\PSoC4/BLE_1.c ****             uint8 defaultValuesCCCD[CYBLE_GAP_MAX_BONDED_DEVICE + 1u][CYBLE_GATT_DB_CCCD_COUNT];
 606:Generated_Source\PSoC4/BLE_1.c ****             
 607:Generated_Source\PSoC4/BLE_1.c ****             (void)memset(defaultValuesCCCD, 0, sizeof(defaultValuesCCCD));
 608:Generated_Source\PSoC4/BLE_1.c **** 
 609:Generated_Source\PSoC4/BLE_1.c ****             apiResult = CyBle_StoreAppData((uint8 *)defaultValuesCCCD, 
 610:Generated_Source\PSoC4/BLE_1.c ****                 (const uint8 *)cyBle_flashStorage.attValuesCCCDFlashMemory, sizeof(defaultValuesCCC
 611:Generated_Source\PSoC4/BLE_1.c ****             if(apiResult == CYBLE_ERROR_OK)
 612:Generated_Source\PSoC4/BLE_1.c ****             {
 613:Generated_Source\PSoC4/BLE_1.c ****                 cyBle_pendingFlashWrite &= (uint8)~CYBLE_PENDING_CCCD_FLASH_CLEAR_ALL_BIT;
 614:Generated_Source\PSoC4/BLE_1.c ****             }
 615:Generated_Source\PSoC4/BLE_1.c ****         }
 616:Generated_Source\PSoC4/BLE_1.c ****         else /* Remove cccd values for particular device */
 617:Generated_Source\PSoC4/BLE_1.c ****         {
 618:Generated_Source\PSoC4/BLE_1.c ****             uint8 defaultValuesCCCD[CYBLE_GATT_DB_CCCD_COUNT] = {0u};
 619:Generated_Source\PSoC4/BLE_1.c ****             
 620:Generated_Source\PSoC4/BLE_1.c ****             apiResult = CyBle_StoreAppData(defaultValuesCCCD, cyBle_flashStorage.attValuesCCCDFlash
 621:Generated_Source\PSoC4/BLE_1.c ****                                     cyBle_pendingFlashClearCccdHandle], CYBLE_GATT_DB_CCCD_COUNT, i
 622:Generated_Source\PSoC4/BLE_1.c ****             if(apiResult == CYBLE_ERROR_OK)
 623:Generated_Source\PSoC4/BLE_1.c ****             {
ARM GAS  C:\Users\jon\AppData\Local\Temp\cciWBaFQ.s 			page 18


 624:Generated_Source\PSoC4/BLE_1.c ****                 cyBle_pendingFlashWrite &= (uint8)~CYBLE_PENDING_CCCD_FLASH_CLEAR_BIT;
 625:Generated_Source\PSoC4/BLE_1.c ****             }
 626:Generated_Source\PSoC4/BLE_1.c ****         }
 627:Generated_Source\PSoC4/BLE_1.c ****     }
 628:Generated_Source\PSoC4/BLE_1.c **** #endif /* CYBLE_GATT_DB_CCCD_COUNT != 0u */
 629:Generated_Source\PSoC4/BLE_1.c ****     return(apiResult);
 630:Generated_Source\PSoC4/BLE_1.c **** }
 631:Generated_Source\PSoC4/BLE_1.c **** 
 632:Generated_Source\PSoC4/BLE_1.c **** 
 633:Generated_Source\PSoC4/BLE_1.c **** /******************************************************************************
 634:Generated_Source\PSoC4/BLE_1.c **** * Function Name: CyBle_GapRemoveBondedDevice
 635:Generated_Source\PSoC4/BLE_1.c **** ***************************************************************************//**
 636:Generated_Source\PSoC4/BLE_1.c **** * 
 637:Generated_Source\PSoC4/BLE_1.c **** *  This function marks the device untrusted. It removes the bonding information
 638:Generated_Source\PSoC4/BLE_1.c **** *  of the device including CCCD values. This function removes device from the
 639:Generated_Source\PSoC4/BLE_1.c **** *  white list also when autopopulate white list with bonded devices option is
 640:Generated_Source\PSoC4/BLE_1.c **** *  enabled.
 641:Generated_Source\PSoC4/BLE_1.c **** * 
 642:Generated_Source\PSoC4/BLE_1.c **** *  This function is available only when Bonding requirement is selected in
 643:Generated_Source\PSoC4/BLE_1.c **** *  Security settings.    
 644:Generated_Source\PSoC4/BLE_1.c **** *
 645:Generated_Source\PSoC4/BLE_1.c **** *  \param bdAddr: Pointer to peer device address, of type CYBLE_GAP_BD_ADDR_T.
 646:Generated_Source\PSoC4/BLE_1.c **** *                 If device address is set to 0, then all devices shall be
 647:Generated_Source\PSoC4/BLE_1.c **** *                 removed from trusted list and white list.
 648:Generated_Source\PSoC4/BLE_1.c **** *
 649:Generated_Source\PSoC4/BLE_1.c **** * \return
 650:Generated_Source\PSoC4/BLE_1.c **** *  CYBLE_API_RESULT_T : Return value indicates if the function succeeded or
 651:Generated_Source\PSoC4/BLE_1.c **** *  failed. Following are the possible error codes.
 652:Generated_Source\PSoC4/BLE_1.c **** *
 653:Generated_Source\PSoC4/BLE_1.c **** *   Errors codes                     | Description
 654:Generated_Source\PSoC4/BLE_1.c **** *   ---------------------------------| ------------------------------------
 655:Generated_Source\PSoC4/BLE_1.c **** *   CYBLE_ERROR_OK                   | On successful operation.
 656:Generated_Source\PSoC4/BLE_1.c **** *   CYBLE_ERROR_INVALID_PARAMETER    | On specifying NULL as input parameter for 'bdAddr'.
 657:Generated_Source\PSoC4/BLE_1.c **** *   CYBLE_ERROR_INVALID_OPERATION    | Whitelist is already in use or there is pending write to fla
 658:Generated_Source\PSoC4/BLE_1.c **** *   CYBLE_ERROR_NO_DEVICE_ENTITY     | Device does not exist in the bond list.
 659:Generated_Source\PSoC4/BLE_1.c **** *
 660:Generated_Source\PSoC4/BLE_1.c **** *  \globalvars
 661:Generated_Source\PSoC4/BLE_1.c **** *   The bdHandle is set in cyBle_pendingFlashWrite variable to indicate that
 662:Generated_Source\PSoC4/BLE_1.c **** *   data should be stored to flash by CyBle_StoreBondingData() afterwards. 
 663:Generated_Source\PSoC4/BLE_1.c **** *     
 664:Generated_Source\PSoC4/BLE_1.c **** ******************************************************************************/
 665:Generated_Source\PSoC4/BLE_1.c **** CYBLE_API_RESULT_T CyBle_GapRemoveBondedDevice(CYBLE_GAP_BD_ADDR_T* bdAddr)
 666:Generated_Source\PSoC4/BLE_1.c **** {
 667:Generated_Source\PSoC4/BLE_1.c ****     CYBLE_API_RESULT_T apiResult = CYBLE_ERROR_OK;
 668:Generated_Source\PSoC4/BLE_1.c ****     
 669:Generated_Source\PSoC4/BLE_1.c ****     if(cyBle_pendingFlashWrite == 0u)
 670:Generated_Source\PSoC4/BLE_1.c ****     {
 671:Generated_Source\PSoC4/BLE_1.c ****         
 672:Generated_Source\PSoC4/BLE_1.c ****     #if(CYBLE_GATT_DB_CCCD_COUNT != 0u)
 673:Generated_Source\PSoC4/BLE_1.c ****         /* Request to clear CCCD values which will be done by CyBle_StoreBondingData() */
 674:Generated_Source\PSoC4/BLE_1.c ****         uint8 bDevHandle;
 675:Generated_Source\PSoC4/BLE_1.c ****         CYBLE_GAP_BD_ADDR_T invalidBdAddr = {{0u,0u,0u,0u,0u,0u}, 0u};
 676:Generated_Source\PSoC4/BLE_1.c **** 
 677:Generated_Source\PSoC4/BLE_1.c ****         if(memcmp(((uint8 *) &(bdAddr->bdAddr)), ((uint8 *) &(invalidBdAddr.bdAddr)), CYBLE_GAP_BD_
 678:Generated_Source\PSoC4/BLE_1.c **** 	    {
 679:Generated_Source\PSoC4/BLE_1.c ****             /* Request to remove all bonded devices by CyBle_StoreBondingData() */
 680:Generated_Source\PSoC4/BLE_1.c ****             cyBle_pendingFlashWrite |= CYBLE_PENDING_CCCD_FLASH_CLEAR_ALL_BIT;
ARM GAS  C:\Users\jon\AppData\Local\Temp\cciWBaFQ.s 			page 19


 681:Generated_Source\PSoC4/BLE_1.c ****         }
 682:Generated_Source\PSoC4/BLE_1.c ****         else
 683:Generated_Source\PSoC4/BLE_1.c ****         {
 684:Generated_Source\PSoC4/BLE_1.c ****             /* Get the BD handle from Address */
 685:Generated_Source\PSoC4/BLE_1.c ****             apiResult = CyBle_GapGetPeerBdHandle(&bDevHandle, bdAddr);
 686:Generated_Source\PSoC4/BLE_1.c ****             if(apiResult == CYBLE_ERROR_OK)
 687:Generated_Source\PSoC4/BLE_1.c ****             {
 688:Generated_Source\PSoC4/BLE_1.c ****                 /* Store BD handle to clear cccd values by CyBle_StoreBondingData() */
 689:Generated_Source\PSoC4/BLE_1.c ****                 cyBle_pendingFlashWrite |= CYBLE_PENDING_CCCD_FLASH_CLEAR_BIT;
 690:Generated_Source\PSoC4/BLE_1.c ****                 cyBle_pendingFlashClearCccdHandle = bDevHandle;
 691:Generated_Source\PSoC4/BLE_1.c ****             }
 692:Generated_Source\PSoC4/BLE_1.c ****         }
 693:Generated_Source\PSoC4/BLE_1.c ****     #endif /* CYBLE_GATT_DB_CCCD_COUNT != 0u */
 694:Generated_Source\PSoC4/BLE_1.c ****         if(apiResult == CYBLE_ERROR_OK)
 695:Generated_Source\PSoC4/BLE_1.c ****         {
 696:Generated_Source\PSoC4/BLE_1.c ****             apiResult = CyBle_GapRemoveDeviceFromWhiteList(bdAddr);
 697:Generated_Source\PSoC4/BLE_1.c ****         }
 698:Generated_Source\PSoC4/BLE_1.c ****     }
 699:Generated_Source\PSoC4/BLE_1.c ****     else
 700:Generated_Source\PSoC4/BLE_1.c ****     {
 701:Generated_Source\PSoC4/BLE_1.c ****         apiResult = CYBLE_ERROR_INVALID_OPERATION;
 702:Generated_Source\PSoC4/BLE_1.c ****     }
 703:Generated_Source\PSoC4/BLE_1.c ****     
 704:Generated_Source\PSoC4/BLE_1.c ****     return(apiResult);
 705:Generated_Source\PSoC4/BLE_1.c **** }
 706:Generated_Source\PSoC4/BLE_1.c **** 
 707:Generated_Source\PSoC4/BLE_1.c **** 
 708:Generated_Source\PSoC4/BLE_1.c **** #endif /* (CYBLE_GAP_ROLE_PERIPHERAL || CYBLE_GAP_ROLE_CENTRAL) && (CYBLE_BONDING_REQUIREMENT == CY
 709:Generated_Source\PSoC4/BLE_1.c **** 
 710:Generated_Source\PSoC4/BLE_1.c **** 
 711:Generated_Source\PSoC4/BLE_1.c **** #if(CYBLE_GAP_ROLE_PERIPHERAL || CYBLE_GAP_ROLE_BROADCASTER)
 712:Generated_Source\PSoC4/BLE_1.c **** 
 713:Generated_Source\PSoC4/BLE_1.c ****     /******************************************************************************
 714:Generated_Source\PSoC4/BLE_1.c ****     *  Function Name: CyBle_GappStartAdvertisement
 715:Generated_Source\PSoC4/BLE_1.c ****     ***************************************************************************//**
 716:Generated_Source\PSoC4/BLE_1.c ****     *     
 717:Generated_Source\PSoC4/BLE_1.c ****     *  This function is used to start the advertisement using the advertisement data 
 718:Generated_Source\PSoC4/BLE_1.c ****     *  set in the component customizer's GUI. After invoking this function, the 
 719:Generated_Source\PSoC4/BLE_1.c ****     *  device will be available for connection by the devices configured for GAP 
 720:Generated_Source\PSoC4/BLE_1.c ****     *  central role. It is only included if the device is configured for GAP 
 721:Generated_Source\PSoC4/BLE_1.c ****     *  Peripheral or GAP Peripheral + Central role.
 722:Generated_Source\PSoC4/BLE_1.c ****     *  
 723:Generated_Source\PSoC4/BLE_1.c ****     *  On start of advertisement, GAP Peripheral receives the
 724:Generated_Source\PSoC4/BLE_1.c ****     *  CYBLE_EVT_GAPP_ADVERTISEMENT_START_STOP event. The following events are 
 725:Generated_Source\PSoC4/BLE_1.c ****     *  possible on invoking this function:
 726:Generated_Source\PSoC4/BLE_1.c ****     *  
 727:Generated_Source\PSoC4/BLE_1.c ****     *  * CYBLE_EVT_GAP_DEVICE_CONNECTED - If the device connects to a GAP Central and 
 728:Generated_Source\PSoC4/BLE_1.c ****     *    Link Layer Privacy is disabled in component customizer.
 729:Generated_Source\PSoC4/BLE_1.c ****     *  * CYBLE_EVT_GAP_ENHANCE_CONN_COMPLETE - If the device connects to a GAP Central and 
 730:Generated_Source\PSoC4/BLE_1.c ****     *    Link Layer Privacy is enabled in component customizer.
 731:Generated_Source\PSoC4/BLE_1.c ****     *  * CYBLE_EVT_TIMEOUT: If no device in GAP Central mode connects to this 
 732:Generated_Source\PSoC4/BLE_1.c ****     *                       device within the specified timeout limit. Stack 
 733:Generated_Source\PSoC4/BLE_1.c ****     *                       automatically initiate stop advertising when Slow 
 734:Generated_Source\PSoC4/BLE_1.c ****     *                       advertising was initiated, or starts Slow advertising
 735:Generated_Source\PSoC4/BLE_1.c ****     *                       after Fast advertising timeout occur.
 736:Generated_Source\PSoC4/BLE_1.c ****     *  * CYBLE_EVT_GAPP_ADVERTISEMENT_START_STOP: If device started or stopped
 737:Generated_Source\PSoC4/BLE_1.c ****     *                                               advertising. Use CyBle_GetState()
ARM GAS  C:\Users\jon\AppData\Local\Temp\cciWBaFQ.s 			page 20


 738:Generated_Source\PSoC4/BLE_1.c ****     *                                               to determine the state. Sequential 
 739:Generated_Source\PSoC4/BLE_1.c ****     *                                               advertising could be started when
 740:Generated_Source\PSoC4/BLE_1.c ****     *                                               CYBLE_STATE_DISCONNECTED state is
 741:Generated_Source\PSoC4/BLE_1.c ****     *                                               returned.
 742:Generated_Source\PSoC4/BLE_1.c ****     * 
 743:Generated_Source\PSoC4/BLE_1.c ****     *  \param advertisingIntervalType: Fast or slow advertising interval with timings
 744:Generated_Source\PSoC4/BLE_1.c ****     *                                 entered in Advertising settings section of the
 745:Generated_Source\PSoC4/BLE_1.c ****     *                                 customizer.
 746:Generated_Source\PSoC4/BLE_1.c ****     *  * CYBLE_ADVERTISING_FAST   0x00u
 747:Generated_Source\PSoC4/BLE_1.c ****     *  * CYBLE_ADVERTISING_SLOW   0x01u
 748:Generated_Source\PSoC4/BLE_1.c ****     *  * CYBLE_ADVERTISING_CUSTOM 0x02u
 749:Generated_Source\PSoC4/BLE_1.c ****     * 
 750:Generated_Source\PSoC4/BLE_1.c ****     * \return
 751:Generated_Source\PSoC4/BLE_1.c ****     *  CYBLE_API_RESULT_T : Return value indicates if the function succeeded or
 752:Generated_Source\PSoC4/BLE_1.c ****     *  failed. Following are the possible error codes.
 753:Generated_Source\PSoC4/BLE_1.c ****     * 
 754:Generated_Source\PSoC4/BLE_1.c ****     *   Errors codes                      |  Description
 755:Generated_Source\PSoC4/BLE_1.c ****     *   --------------------------------- |  --------------------------------
 756:Generated_Source\PSoC4/BLE_1.c ****     *   CYBLE_ERROR_OK                    |  On successful operation.
 757:Generated_Source\PSoC4/BLE_1.c ****     *   CYBLE_ERROR_INVALID_PARAMETER     |  On passing an invalid parameter.
 758:Generated_Source\PSoC4/BLE_1.c ****     *   CYBLE_ERROR_INVALID_STATE         |  On calling this function not in Disconnected state.
 759:Generated_Source\PSoC4/BLE_1.c ****     *
 760:Generated_Source\PSoC4/BLE_1.c ****     * 
 761:Generated_Source\PSoC4/BLE_1.c ****     *******************************************************************************/
 762:Generated_Source\PSoC4/BLE_1.c ****     CYBLE_API_RESULT_T CyBle_GappStartAdvertisement(uint8 advertisingIntervalType)
 763:Generated_Source\PSoC4/BLE_1.c ****     {
 764:Generated_Source\PSoC4/BLE_1.c ****         CYBLE_API_RESULT_T apiResult;
 765:Generated_Source\PSoC4/BLE_1.c ****         
 766:Generated_Source\PSoC4/BLE_1.c ****         if(advertisingIntervalType > CYBLE_ADVERTISING_CUSTOM)
 767:Generated_Source\PSoC4/BLE_1.c ****         {
 768:Generated_Source\PSoC4/BLE_1.c ****             apiResult = CYBLE_ERROR_INVALID_PARAMETER;
 769:Generated_Source\PSoC4/BLE_1.c ****         }
 770:Generated_Source\PSoC4/BLE_1.c ****         else if((CYBLE_STATE_DISCONNECTED == CyBle_GetState()) && ((cyBle_eventHandlerFlag & CYBLE_
 771:Generated_Source\PSoC4/BLE_1.c ****         {   
 772:Generated_Source\PSoC4/BLE_1.c ****             if(advertisingIntervalType == CYBLE_ADVERTISING_FAST)
 773:Generated_Source\PSoC4/BLE_1.c ****             {
 774:Generated_Source\PSoC4/BLE_1.c ****                 cyBle_discoveryModeInfo.advTo = CYBLE_FAST_ADV_TIMEOUT;
 775:Generated_Source\PSoC4/BLE_1.c ****                 cyBle_discoveryModeInfo.advParam->advIntvMin = CYBLE_FAST_ADV_INT_MIN;
 776:Generated_Source\PSoC4/BLE_1.c ****                 cyBle_discoveryModeInfo.advParam->advIntvMax = CYBLE_FAST_ADV_INT_MAX;
 777:Generated_Source\PSoC4/BLE_1.c ****             }
 778:Generated_Source\PSoC4/BLE_1.c ****             else if(advertisingIntervalType == CYBLE_ADVERTISING_SLOW)
 779:Generated_Source\PSoC4/BLE_1.c ****             {
 780:Generated_Source\PSoC4/BLE_1.c ****                 cyBle_discoveryModeInfo.advTo = CYBLE_SLOW_ADV_TIMEOUT;
 781:Generated_Source\PSoC4/BLE_1.c ****                 cyBle_discoveryModeInfo.advParam->advIntvMin = CYBLE_SLOW_ADV_INT_MIN;
 782:Generated_Source\PSoC4/BLE_1.c ****                 cyBle_discoveryModeInfo.advParam->advIntvMax = CYBLE_SLOW_ADV_INT_MAX;
 783:Generated_Source\PSoC4/BLE_1.c ****             }       
 784:Generated_Source\PSoC4/BLE_1.c ****             else /* Do not update advertising intervals */
 785:Generated_Source\PSoC4/BLE_1.c ****             {
 786:Generated_Source\PSoC4/BLE_1.c ****             }
 787:Generated_Source\PSoC4/BLE_1.c ****             cyBle_advertisingIntervalType = advertisingIntervalType;
 788:Generated_Source\PSoC4/BLE_1.c ****             apiResult = CyBle_GappEnterDiscoveryMode(&cyBle_discoveryModeInfo);
 789:Generated_Source\PSoC4/BLE_1.c ****         
 790:Generated_Source\PSoC4/BLE_1.c ****             if(apiResult == CYBLE_ERROR_OK)
 791:Generated_Source\PSoC4/BLE_1.c ****             {
 792:Generated_Source\PSoC4/BLE_1.c ****                 cyBle_eventHandlerFlag |= CYBLE_START_FLAG;
 793:Generated_Source\PSoC4/BLE_1.c ****             }
 794:Generated_Source\PSoC4/BLE_1.c ****         }
ARM GAS  C:\Users\jon\AppData\Local\Temp\cciWBaFQ.s 			page 21


 795:Generated_Source\PSoC4/BLE_1.c ****         else
 796:Generated_Source\PSoC4/BLE_1.c ****         {
 797:Generated_Source\PSoC4/BLE_1.c ****             apiResult = CYBLE_ERROR_INVALID_STATE;
 798:Generated_Source\PSoC4/BLE_1.c ****         }
 799:Generated_Source\PSoC4/BLE_1.c **** 
 800:Generated_Source\PSoC4/BLE_1.c ****         return (apiResult);
 801:Generated_Source\PSoC4/BLE_1.c ****     }
 802:Generated_Source\PSoC4/BLE_1.c **** 
 803:Generated_Source\PSoC4/BLE_1.c ****     
 804:Generated_Source\PSoC4/BLE_1.c ****     /******************************************************************************
 805:Generated_Source\PSoC4/BLE_1.c ****     * Function Name: CyBle_GappStopAdvertisement
 806:Generated_Source\PSoC4/BLE_1.c ****     ***************************************************************************//**
 807:Generated_Source\PSoC4/BLE_1.c ****     * 
 808:Generated_Source\PSoC4/BLE_1.c ****     *   This function can be used to exit from discovery mode. After the execution 
 809:Generated_Source\PSoC4/BLE_1.c ****     *   of this function, there will no longer be any advertisements. On stopping 
 810:Generated_Source\PSoC4/BLE_1.c ****     *   advertising, GAP Peripheral receives CYBLE_EVT_GAPP_ADVERTISEMENT_START_STOP
 811:Generated_Source\PSoC4/BLE_1.c ****     *   event. It is expected that the application layer tracks the function call 
 812:Generated_Source\PSoC4/BLE_1.c ****     *   performed before occurrence of this event as this event can occur on making 
 813:Generated_Source\PSoC4/BLE_1.c ****     *   a call to Cy_BleGappStartAdvertisement(), CyBle_GappEnterDiscoveryMode(), 
 814:Generated_Source\PSoC4/BLE_1.c ****     *   or CyBle_GappStartAdvertisement() functions as well.
 815:Generated_Source\PSoC4/BLE_1.c ****     *   
 816:Generated_Source\PSoC4/BLE_1.c ****     *   The following event occurs on invoking this function:
 817:Generated_Source\PSoC4/BLE_1.c ****     *   * CYBLE_EVT_GAPP_ADVERTISEMENT_START_STOP
 818:Generated_Source\PSoC4/BLE_1.c ****     * 
 819:Generated_Source\PSoC4/BLE_1.c ****     *  \return
 820:Generated_Source\PSoC4/BLE_1.c ****     *   None
 821:Generated_Source\PSoC4/BLE_1.c ****     * 
 822:Generated_Source\PSoC4/BLE_1.c ****     *******************************************************************************/
 823:Generated_Source\PSoC4/BLE_1.c ****     void CyBle_GappStopAdvertisement(void)
 824:Generated_Source\PSoC4/BLE_1.c ****     {
 825:Generated_Source\PSoC4/BLE_1.c ****         CyBle_GappExitDiscoveryMode();
 826:Generated_Source\PSoC4/BLE_1.c ****         cyBle_eventHandlerFlag |= CYBLE_STOP_FLAG;
 827:Generated_Source\PSoC4/BLE_1.c ****     }
 828:Generated_Source\PSoC4/BLE_1.c ****     
 829:Generated_Source\PSoC4/BLE_1.c ****     
 830:Generated_Source\PSoC4/BLE_1.c ****     /******************************************************************************
 831:Generated_Source\PSoC4/BLE_1.c ****     * Function Name: CyBle_ChangeAdDeviceAddress
 832:Generated_Source\PSoC4/BLE_1.c ****     ***************************************************************************//**
 833:Generated_Source\PSoC4/BLE_1.c ****     * 
 834:Generated_Source\PSoC4/BLE_1.c ****     *  This function is used to set the Bluetooth device address into the 
 835:Generated_Source\PSoC4/BLE_1.c ****     *  advertisement or scan response data structure.
 836:Generated_Source\PSoC4/BLE_1.c ****     * 
 837:Generated_Source\PSoC4/BLE_1.c ****     *  \param bdAddr: Bluetooth Device address. The variable is of type CYBLE_GAP_BD_ADDR_T
 838:Generated_Source\PSoC4/BLE_1.c ****     *  \param dest: 0 - selects advertisement structure, not zero value selects scan 
 839:Generated_Source\PSoC4/BLE_1.c ****     *               response structure.
 840:Generated_Source\PSoC4/BLE_1.c ****     * 
 841:Generated_Source\PSoC4/BLE_1.c ****     * \return
 842:Generated_Source\PSoC4/BLE_1.c ****     *  None
 843:Generated_Source\PSoC4/BLE_1.c ****     *  
 844:Generated_Source\PSoC4/BLE_1.c ****     *******************************************************************************/
 845:Generated_Source\PSoC4/BLE_1.c ****     void CyBle_ChangeAdDeviceAddress(const CYBLE_GAP_BD_ADDR_T* bdAddr, uint8 dest)
 846:Generated_Source\PSoC4/BLE_1.c ****     {
 847:Generated_Source\PSoC4/BLE_1.c ****         uint8 i;
 848:Generated_Source\PSoC4/BLE_1.c ****         uint8 *destBuffer = NULL;
 849:Generated_Source\PSoC4/BLE_1.c ****         
 850:Generated_Source\PSoC4/BLE_1.c ****         if(dest == 0u)      /* Destination - advertising structure */
 851:Generated_Source\PSoC4/BLE_1.c ****         {
ARM GAS  C:\Users\jon\AppData\Local\Temp\cciWBaFQ.s 			page 22


 852:Generated_Source\PSoC4/BLE_1.c ****             #ifdef CYBLE_ADV_PKT_INDEX_BLUETOOTH_DEVICE_ADDRESS
 853:Generated_Source\PSoC4/BLE_1.c ****                 destBuffer = &cyBle_discoveryData.advData[CYBLE_ADV_PKT_INDEX_BLUETOOTH_DEVICE_ADDR
 854:Generated_Source\PSoC4/BLE_1.c ****             #endif /* CYBLE_ADV_PKT_INDEX_BLUETOOTH_DEVICE_ADDRESS */
 855:Generated_Source\PSoC4/BLE_1.c ****         }
 856:Generated_Source\PSoC4/BLE_1.c ****         else                /* Destination - scan response structure */
 857:Generated_Source\PSoC4/BLE_1.c ****         {
 858:Generated_Source\PSoC4/BLE_1.c ****             #ifdef CYBLE_SCN_PKT_INDEX_BLUETOOTH_DEVICE_ADDRESS
 859:Generated_Source\PSoC4/BLE_1.c ****                 destBuffer = &cyBle_scanRspData.scanRspData[CYBLE_SCN_PKT_INDEX_BLUETOOTH_DEVICE_AD
 860:Generated_Source\PSoC4/BLE_1.c ****             #endif /* CYBLE_SCN_PKT_INDEX_BLUETOOTH_DEVICE_ADDRESS */    
 861:Generated_Source\PSoC4/BLE_1.c ****         }
 862:Generated_Source\PSoC4/BLE_1.c ****         
 863:Generated_Source\PSoC4/BLE_1.c ****         if(destBuffer != NULL)
 864:Generated_Source\PSoC4/BLE_1.c ****         {
 865:Generated_Source\PSoC4/BLE_1.c ****             /* Update Device Address type */
 866:Generated_Source\PSoC4/BLE_1.c ****             destBuffer[0u] = bdAddr->type;
 867:Generated_Source\PSoC4/BLE_1.c ****             
 868:Generated_Source\PSoC4/BLE_1.c ****             for(i = 0u; i < CYBLE_GAP_BD_ADDR_SIZE; i++)
 869:Generated_Source\PSoC4/BLE_1.c ****             {
 870:Generated_Source\PSoC4/BLE_1.c ****                 destBuffer[i + 1u] = bdAddr->bdAddr[i];
 871:Generated_Source\PSoC4/BLE_1.c ****             }
 872:Generated_Source\PSoC4/BLE_1.c ****         }
 873:Generated_Source\PSoC4/BLE_1.c ****     }
 874:Generated_Source\PSoC4/BLE_1.c ****   
 875:Generated_Source\PSoC4/BLE_1.c **** #endif /* CYBLE_GAP_ROLE_PERIPHERAL || CYBLE_GAP_ROLE_BROADCASTER */
 876:Generated_Source\PSoC4/BLE_1.c **** 
 877:Generated_Source\PSoC4/BLE_1.c **** 
 878:Generated_Source\PSoC4/BLE_1.c **** #if(CYBLE_GAP_ROLE_CENTRAL || CYBLE_GAP_ROLE_OBSERVER)
 879:Generated_Source\PSoC4/BLE_1.c **** 
 880:Generated_Source\PSoC4/BLE_1.c ****     /******************************************************************************
 881:Generated_Source\PSoC4/BLE_1.c ****     * Function Name: CyBle_GapcStartScan
 882:Generated_Source\PSoC4/BLE_1.c ****     ***************************************************************************//**
 883:Generated_Source\PSoC4/BLE_1.c ****     * 
 884:Generated_Source\PSoC4/BLE_1.c ****     *   This function is used for discovering GAP peripheral devices that are 
 885:Generated_Source\PSoC4/BLE_1.c ****     *   available for connection. It performs the scanning routine using the 
 886:Generated_Source\PSoC4/BLE_1.c ****     *   parameters entered in the component's customizer.
 887:Generated_Source\PSoC4/BLE_1.c ****     *   
 888:Generated_Source\PSoC4/BLE_1.c ****     *   As soon as the discovery operation starts, CYBLE_EVT_GAPC_SCAN_START_STOP 
 889:Generated_Source\PSoC4/BLE_1.c ****     *   event is generated. The CYBLE_EVT_GAPC_SCAN_PROGRESS_RESULT event is 
 890:Generated_Source\PSoC4/BLE_1.c ****     *   generated when a GAP peripheral device is located. There are three discovery
 891:Generated_Source\PSoC4/BLE_1.c ****     *   procedures can be selected in the customizer's GUI:
 892:Generated_Source\PSoC4/BLE_1.c ****     *   
 893:Generated_Source\PSoC4/BLE_1.c ****     *   * Observation procedure: A device performing the observer role receives only
 894:Generated_Source\PSoC4/BLE_1.c ****     *                            advertisement data from devices irrespective of 
 895:Generated_Source\PSoC4/BLE_1.c ****     *                            their discoverable mode settings. Advertisement 
 896:Generated_Source\PSoC4/BLE_1.c ****     *                            data received is provided by the event,      
 897:Generated_Source\PSoC4/BLE_1.c ****     *                            CYBLE_EVT_GAPC_SCAN_PROGRESS_RESULT. This procedure
 898:Generated_Source\PSoC4/BLE_1.c ****     *                            requires the scanType sub parameter to be passive
 899:Generated_Source\PSoC4/BLE_1.c ****     *                            scanning. 
 900:Generated_Source\PSoC4/BLE_1.c ****     *   
 901:Generated_Source\PSoC4/BLE_1.c ****     *   * Limited Discovery procedure: A device performing the limited discovery
 902:Generated_Source\PSoC4/BLE_1.c ****     *                                  procedure receives advertisement data and 
 903:Generated_Source\PSoC4/BLE_1.c ****     *                                  scan# response data from devices in the 
 904:Generated_Source\PSoC4/BLE_1.c ****     *                                  limited discoverable mode only. Received data
 905:Generated_Source\PSoC4/BLE_1.c ****     *                                  is provided by the event, 
 906:Generated_Source\PSoC4/BLE_1.c ****     *                                  CYBLE_EVT_GAPC_SCAN_PROGRESS_RESULT. This 
 907:Generated_Source\PSoC4/BLE_1.c ****     *                                  procedure requires the scanType sub-parameter 
 908:Generated_Source\PSoC4/BLE_1.c ****     *                                  to be active scanning.
ARM GAS  C:\Users\jon\AppData\Local\Temp\cciWBaFQ.s 			page 23


 909:Generated_Source\PSoC4/BLE_1.c ****     *   
 910:Generated_Source\PSoC4/BLE_1.c ****     *   * General Discovery procedure: A device performing the general discovery 
 911:Generated_Source\PSoC4/BLE_1.c ****     *                                  procedure receives the advertisement data and
 912:Generated_Source\PSoC4/BLE_1.c ****     *                                  scan response data from devices in both 
 913:Generated_Source\PSoC4/BLE_1.c ****     *                                  limited discoverable mode and the general 
 914:Generated_Source\PSoC4/BLE_1.c ****     *                                  discoverable mode. Received data is provided
 915:Generated_Source\PSoC4/BLE_1.c ****     *                                  by the event,
 916:Generated_Source\PSoC4/BLE_1.c ****     *                                  CYBLE_EVT_GAPC_SCAN_PROGRESS_RESULT. This 
 917:Generated_Source\PSoC4/BLE_1.c ****     *                                  procedure requires the scanType sub-parameter
 918:Generated_Source\PSoC4/BLE_1.c ****     *                                  to be active scanning.
 919:Generated_Source\PSoC4/BLE_1.c ****     *   
 920:Generated_Source\PSoC4/BLE_1.c ****     *   Every Advertisement / Scan response packet received results in a new event, 
 921:Generated_Source\PSoC4/BLE_1.c ****     *   CYBLE_EVT_GAPC_SCAN_PROGRESS_RESULT.
 922:Generated_Source\PSoC4/BLE_1.c ****     *   If 'scanTo' sub-parameter is a non-zero value, then upon commencement of 
 923:Generated_Source\PSoC4/BLE_1.c ****     *   discovery procedure and elapsed time = 'scanTo', CYBLE_EVT_TIMEOUT event
 924:Generated_Source\PSoC4/BLE_1.c ****     *   is generated with the event parameter indicating CYBLE_GAP_SCAN_TO.
 925:Generated_Source\PSoC4/BLE_1.c ****     *   Possible generated events are:
 926:Generated_Source\PSoC4/BLE_1.c ****     *   * CYBLE_EVT_GAPC_SCAN_START_STOP: If a device started or stopped scanning. 
 927:Generated_Source\PSoC4/BLE_1.c ****     *                                     Use CyBle_GetState() to determine the 
 928:Generated_Source\PSoC4/BLE_1.c ****     *                                     state. Sequential scanning could be 
 929:Generated_Source\PSoC4/BLE_1.c ****     *                                     started when CYBLE_STATE_DISCONNECTED 
 930:Generated_Source\PSoC4/BLE_1.c ****     *                                     state is returned. 
 931:Generated_Source\PSoC4/BLE_1.c ****     *   * CYBLE_EVT_GAPC_SCAN_PROGRESS_RESULT 
 932:Generated_Source\PSoC4/BLE_1.c ****     *   * CYBLE_EVT_TIMEOUT (CYBLE_GAP_SCAN_TO)
 933:Generated_Source\PSoC4/BLE_1.c ****     * 
 934:Generated_Source\PSoC4/BLE_1.c ****     *   \param scanningIntervalType:  Fast or slow scanning interval with
 935:Generated_Source\PSoC4/BLE_1.c ****     *       timings entered in Scan settings section of the customizer.
 936:Generated_Source\PSoC4/BLE_1.c ****     * 	  * CYBLE_SCANNING_FAST   0x00u
 937:Generated_Source\PSoC4/BLE_1.c ****     * 	  * CYBLE_SCANNING_SLOW   0x01u
 938:Generated_Source\PSoC4/BLE_1.c ****     * 	  * CYBLE_SCANNING_CUSTOM 0x02u
 939:Generated_Source\PSoC4/BLE_1.c ****     * 
 940:Generated_Source\PSoC4/BLE_1.c ****     * \return
 941:Generated_Source\PSoC4/BLE_1.c ****     *  CYBLE_API_RESULT_T : Return value indicates if the function succeeded or
 942:Generated_Source\PSoC4/BLE_1.c ****     *  failed. Following are the possible error codes.
 943:Generated_Source\PSoC4/BLE_1.c ****     *
 944:Generated_Source\PSoC4/BLE_1.c ****     *   Errors codes                       | Description
 945:Generated_Source\PSoC4/BLE_1.c ****     *   ---------------------------------- | -----------------------------------
 946:Generated_Source\PSoC4/BLE_1.c ****     *   CYBLE_ERROR_OK                     | On successful operation.
 947:Generated_Source\PSoC4/BLE_1.c ****     *   CYBLE_ERROR_STACK_INTERNAL         | An error occurred in the BLE stack.
 948:Generated_Source\PSoC4/BLE_1.c ****     *   CYBLE_ERROR_INVALID_PARAMETER      | On passing an invalid parameter.
 949:Generated_Source\PSoC4/BLE_1.c ****     *  
 950:Generated_Source\PSoC4/BLE_1.c ****     *******************************************************************************/
 951:Generated_Source\PSoC4/BLE_1.c ****     CYBLE_API_RESULT_T CyBle_GapcStartScan(uint8 scanningIntervalType)
 952:Generated_Source\PSoC4/BLE_1.c ****     {
 330              		.loc 1 952 0
 331              		.cfi_startproc
 332              		@ args = 0, pretend = 0, frame = 0
 333              		@ frame_needed = 0, uses_anonymous_args = 0
 334              	.LVL18:
 335 0000 10B5     		push	{r4, lr}
 336              		.cfi_def_cfa_offset 8
 337              		.cfi_offset 4, -8
 338              		.cfi_offset 14, -4
 953:Generated_Source\PSoC4/BLE_1.c ****         CYBLE_API_RESULT_T apiResult;
 954:Generated_Source\PSoC4/BLE_1.c **** 
 955:Generated_Source\PSoC4/BLE_1.c ****         if(scanningIntervalType > CYBLE_SCANNING_CUSTOM)
 339              		.loc 1 955 0
ARM GAS  C:\Users\jon\AppData\Local\Temp\cciWBaFQ.s 			page 24


 340 0002 0228     		cmp	r0, #2
 341 0004 20D8     		bhi	.L22
 956:Generated_Source\PSoC4/BLE_1.c ****         {
 957:Generated_Source\PSoC4/BLE_1.c ****             apiResult = CYBLE_ERROR_INVALID_PARAMETER;
 958:Generated_Source\PSoC4/BLE_1.c ****         }
 959:Generated_Source\PSoC4/BLE_1.c ****         else
 960:Generated_Source\PSoC4/BLE_1.c ****         {
 961:Generated_Source\PSoC4/BLE_1.c ****             if(scanningIntervalType == CYBLE_SCANNING_FAST)
 342              		.loc 1 961 0
 343 0006 0028     		cmp	r0, #0
 344 0008 06D1     		bne	.L20
 962:Generated_Source\PSoC4/BLE_1.c ****             {
 963:Generated_Source\PSoC4/BLE_1.c ****                 cyBle_discoveryInfo.scanTo = CYBLE_FAST_SCAN_TIMEOUT;
 345              		.loc 1 963 0
 346 000a 104B     		ldr	r3, .L23
 347 000c 1E22     		movs	r2, #30
 348 000e 1A81     		strh	r2, [r3, #8]
 964:Generated_Source\PSoC4/BLE_1.c ****                 cyBle_discoveryInfo.scanIntv = CYBLE_FAST_SCAN_INTERVAL;
 349              		.loc 1 964 0
 350 0010 1232     		adds	r2, r2, #18
 351 0012 5A80     		strh	r2, [r3, #2]
 965:Generated_Source\PSoC4/BLE_1.c ****                 cyBle_discoveryInfo.scanWindow = CYBLE_FAST_SCAN_WINDOW;
 352              		.loc 1 965 0
 353 0014 9A80     		strh	r2, [r3, #4]
 354 0016 09E0     		b	.L21
 355              	.L20:
 966:Generated_Source\PSoC4/BLE_1.c ****             }
 967:Generated_Source\PSoC4/BLE_1.c ****             else if(scanningIntervalType == CYBLE_SCANNING_SLOW)
 356              		.loc 1 967 0
 357 0018 0128     		cmp	r0, #1
 358 001a 07D1     		bne	.L21
 968:Generated_Source\PSoC4/BLE_1.c ****             {
 969:Generated_Source\PSoC4/BLE_1.c ****                 cyBle_discoveryInfo.scanTo = CYBLE_SLOW_SCAN_TIMEOUT;
 359              		.loc 1 969 0
 360 001c 0B4B     		ldr	r3, .L23
 361 001e 9622     		movs	r2, #150
 362 0020 1A81     		strh	r2, [r3, #8]
 970:Generated_Source\PSoC4/BLE_1.c ****                 cyBle_discoveryInfo.scanIntv = CYBLE_SLOW_SCAN_INTERVAL;
 363              		.loc 1 970 0
 364 0022 8022     		movs	r2, #128
 365 0024 1201     		lsls	r2, r2, #4
 366 0026 5A80     		strh	r2, [r3, #2]
 971:Generated_Source\PSoC4/BLE_1.c ****                 cyBle_discoveryInfo.scanWindow = CYBLE_SLOW_SCAN_WINDOW;
 367              		.loc 1 971 0
 368 0028 F83A     		subs	r2, r2, #248
 369 002a 9A80     		strh	r2, [r3, #4]
 370              	.L21:
 972:Generated_Source\PSoC4/BLE_1.c ****             }       
 973:Generated_Source\PSoC4/BLE_1.c ****             else /* Do not update scanning intervals */
 974:Generated_Source\PSoC4/BLE_1.c ****             {
 975:Generated_Source\PSoC4/BLE_1.c ****             }
 976:Generated_Source\PSoC4/BLE_1.c ****             
 977:Generated_Source\PSoC4/BLE_1.c ****             cyBle_scanningIntervalType = scanningIntervalType;
 371              		.loc 1 977 0
 372 002c 084B     		ldr	r3, .L23+4
 373 002e 1870     		strb	r0, [r3]
 978:Generated_Source\PSoC4/BLE_1.c ****             apiResult = CyBle_GapcStartDiscovery(&cyBle_discoveryInfo);
ARM GAS  C:\Users\jon\AppData\Local\Temp\cciWBaFQ.s 			page 25


 374              		.loc 1 978 0
 375 0030 0648     		ldr	r0, .L23
 376              	.LVL19:
 377 0032 FFF7FEFF 		bl	CyBle_GapcStartDiscovery
 378              	.LVL20:
 979:Generated_Source\PSoC4/BLE_1.c ****         
 980:Generated_Source\PSoC4/BLE_1.c ****             if(apiResult == CYBLE_ERROR_OK)
 379              		.loc 1 980 0
 380 0036 0028     		cmp	r0, #0
 381 0038 07D1     		bne	.L19
 981:Generated_Source\PSoC4/BLE_1.c ****             {
 982:Generated_Source\PSoC4/BLE_1.c ****                 cyBle_eventHandlerFlag |= CYBLE_START_FLAG;
 382              		.loc 1 982 0
 383 003a 064A     		ldr	r2, .L23+8
 384 003c 1178     		ldrb	r1, [r2]
 385 003e 0423     		movs	r3, #4
 386 0040 0B43     		orrs	r3, r1
 387 0042 DBB2     		uxtb	r3, r3
 388 0044 1370     		strb	r3, [r2]
 389 0046 00E0     		b	.L19
 390              	.LVL21:
 391              	.L22:
 957:Generated_Source\PSoC4/BLE_1.c ****         }
 392              		.loc 1 957 0
 393 0048 0120     		movs	r0, #1
 394              	.LVL22:
 395              	.L19:
 983:Generated_Source\PSoC4/BLE_1.c ****             }
 984:Generated_Source\PSoC4/BLE_1.c ****         }
 985:Generated_Source\PSoC4/BLE_1.c ****        
 986:Generated_Source\PSoC4/BLE_1.c ****         return (apiResult);
 987:Generated_Source\PSoC4/BLE_1.c ****     }
 396              		.loc 1 987 0
 397              		@ sp needed
 398 004a 10BD     		pop	{r4, pc}
 399              	.L24:
 400              		.align	2
 401              	.L23:
 402 004c 00000000 		.word	.LANCHOR0
 403 0050 00000000 		.word	cyBle_scanningIntervalType
 404 0054 00000000 		.word	cyBle_eventHandlerFlag
 405              		.cfi_endproc
 406              	.LFE6:
 407              		.size	CyBle_GapcStartScan, .-CyBle_GapcStartScan
 408              		.section	.text.CyBle_GapcStopScan,"ax",%progbits
 409              		.align	2
 410              		.global	CyBle_GapcStopScan
 411              		.code	16
 412              		.thumb_func
 413              		.type	CyBle_GapcStopScan, %function
 414              	CyBle_GapcStopScan:
 415              	.LFB7:
 988:Generated_Source\PSoC4/BLE_1.c ****     
 989:Generated_Source\PSoC4/BLE_1.c ****     
 990:Generated_Source\PSoC4/BLE_1.c ****     /******************************************************************************
 991:Generated_Source\PSoC4/BLE_1.c ****     * Function Name: CyBle_GapcStopScan
 992:Generated_Source\PSoC4/BLE_1.c ****     ***************************************************************************//**
ARM GAS  C:\Users\jon\AppData\Local\Temp\cciWBaFQ.s 			page 26


 993:Generated_Source\PSoC4/BLE_1.c ****     * 
 994:Generated_Source\PSoC4/BLE_1.c ****     *   This function used to stop the discovery of devices. On stopping discovery
 995:Generated_Source\PSoC4/BLE_1.c ****     *   operation, CYBLE_EVT_GAPC_SCAN_START_STOP event is generated. Application
 996:Generated_Source\PSoC4/BLE_1.c ****     *   layer needs to keep track of the function call made before receiving this
 997:Generated_Source\PSoC4/BLE_1.c ****     *   event to associate this event with either the start or stop discovery
 998:Generated_Source\PSoC4/BLE_1.c ****     *   function.
 999:Generated_Source\PSoC4/BLE_1.c ****     * 
1000:Generated_Source\PSoC4/BLE_1.c ****     *   Possible events generated are:
1001:Generated_Source\PSoC4/BLE_1.c ****     *    * CYBLE_EVT_GAPC_SCAN_START_STOP
1002:Generated_Source\PSoC4/BLE_1.c ****     * 
1003:Generated_Source\PSoC4/BLE_1.c ****     *  \return
1004:Generated_Source\PSoC4/BLE_1.c ****     *   None
1005:Generated_Source\PSoC4/BLE_1.c ****     * 
1006:Generated_Source\PSoC4/BLE_1.c ****     *******************************************************************************/
1007:Generated_Source\PSoC4/BLE_1.c ****     void CyBle_GapcStopScan(void)
1008:Generated_Source\PSoC4/BLE_1.c ****     {
 416              		.loc 1 1008 0
 417              		.cfi_startproc
 418              		@ args = 0, pretend = 0, frame = 0
 419              		@ frame_needed = 0, uses_anonymous_args = 0
 420 0000 10B5     		push	{r4, lr}
 421              		.cfi_def_cfa_offset 8
 422              		.cfi_offset 4, -8
 423              		.cfi_offset 14, -4
1009:Generated_Source\PSoC4/BLE_1.c ****         CyBle_GapcStopDiscovery();
 424              		.loc 1 1009 0
 425 0002 FFF7FEFF 		bl	CyBle_GapcStopDiscovery
 426              	.LVL23:
1010:Generated_Source\PSoC4/BLE_1.c ****         
1011:Generated_Source\PSoC4/BLE_1.c ****         cyBle_eventHandlerFlag |= CYBLE_STOP_FLAG;
 427              		.loc 1 1011 0
 428 0006 034A     		ldr	r2, .L26
 429 0008 1178     		ldrb	r1, [r2]
 430 000a 0823     		movs	r3, #8
 431 000c 0B43     		orrs	r3, r1
 432 000e DBB2     		uxtb	r3, r3
 433 0010 1370     		strb	r3, [r2]
1012:Generated_Source\PSoC4/BLE_1.c ****     }
 434              		.loc 1 1012 0
 435              		@ sp needed
 436 0012 10BD     		pop	{r4, pc}
 437              	.L27:
 438              		.align	2
 439              	.L26:
 440 0014 00000000 		.word	cyBle_eventHandlerFlag
 441              		.cfi_endproc
 442              	.LFE7:
 443              		.size	CyBle_GapcStopScan, .-CyBle_GapcStopScan
 444              		.section	.text.CyBle_GapcConnectDevice,"ax",%progbits
 445              		.align	2
 446              		.global	CyBle_GapcConnectDevice
 447              		.code	16
 448              		.thumb_func
 449              		.type	CyBle_GapcConnectDevice, %function
 450              	CyBle_GapcConnectDevice:
 451              	.LFB8:
1013:Generated_Source\PSoC4/BLE_1.c **** 
ARM GAS  C:\Users\jon\AppData\Local\Temp\cciWBaFQ.s 			page 27


1014:Generated_Source\PSoC4/BLE_1.c ****     
1015:Generated_Source\PSoC4/BLE_1.c **** #endif /* CYBLE_GAP_ROLE_CENTRAL || CYBLE_GAP_ROLE_OBSERVER */
1016:Generated_Source\PSoC4/BLE_1.c **** 
1017:Generated_Source\PSoC4/BLE_1.c **** 
1018:Generated_Source\PSoC4/BLE_1.c **** #if(CYBLE_GAP_ROLE_CENTRAL)
1019:Generated_Source\PSoC4/BLE_1.c **** 
1020:Generated_Source\PSoC4/BLE_1.c ****     /******************************************************************************
1021:Generated_Source\PSoC4/BLE_1.c ****     * Function Name: CyBle_GapcConnectDevice
1022:Generated_Source\PSoC4/BLE_1.c ****     ***************************************************************************//**
1023:Generated_Source\PSoC4/BLE_1.c ****     * 
1024:Generated_Source\PSoC4/BLE_1.c ****     *  This function is used to send a connection request to the remote device with
1025:Generated_Source\PSoC4/BLE_1.c ****     *  the connection parameters set in the component customizer. This function needs
1026:Generated_Source\PSoC4/BLE_1.c ****     *  to be called only once after the target device is discovered by 
1027:Generated_Source\PSoC4/BLE_1.c ****     *  CyBle_GapcStartScan() and further scanning has stopped. Scanning is 
1028:Generated_Source\PSoC4/BLE_1.c ****     *  successfully stopped on invoking CyBle_GapcStopScan() and then receiving the
1029:Generated_Source\PSoC4/BLE_1.c ****     *  event CYBLE_EVT_GAPC_SCAN_START_STOP with sub-parameter 'success' = 0x01u.
1030:Generated_Source\PSoC4/BLE_1.c ****     *  
1031:Generated_Source\PSoC4/BLE_1.c ****     *  On successful connection, the following events are generated at the GAP 
1032:Generated_Source\PSoC4/BLE_1.c ****     *  Central device (as well as the GAP Peripheral device), in the following order.
1033:Generated_Source\PSoC4/BLE_1.c ****     *  * CYBLE_EVT_GATT_CONNECT_IND
1034:Generated_Source\PSoC4/BLE_1.c ****     *  * CYBLE_EVT_GAP_DEVICE_CONNECTED - If the device connects to a GAP Central and 
1035:Generated_Source\PSoC4/BLE_1.c ****     *    Link Layer Privacy is disabled in component customizer.
1036:Generated_Source\PSoC4/BLE_1.c ****     *  * CYBLE_EVT_GAP_ENHANCE_CONN_COMPLETE - If the device connects to a GAP Central and 
1037:Generated_Source\PSoC4/BLE_1.c ****     *    Link Layer Privacy is enabled in component customizer.
1038:Generated_Source\PSoC4/BLE_1.c ****     *  * CYBLE_EVT_GAP_DEVICE_CONNECTED
1039:Generated_Source\PSoC4/BLE_1.c ****     *  
1040:Generated_Source\PSoC4/BLE_1.c ****     *  A procedure is considered to have timed out if a connection response packet is 
1041:Generated_Source\PSoC4/BLE_1.c ****     *  not received within time set by cyBle_connectingTimeout global variable
1042:Generated_Source\PSoC4/BLE_1.c ****     *  (30 seconds by default). CYBLE_EVT_TIMEOUT event with CYBLE_GENERIC_TO parameter
1043:Generated_Source\PSoC4/BLE_1.c ****     *  will indicate about connection procedure timeout. Connection will automatically
1044:Generated_Source\PSoC4/BLE_1.c ****     *  be canceled and state will be changed to CYBLE_STATE_DISCONNECTED.
1045:Generated_Source\PSoC4/BLE_1.c ****     * 
1046:Generated_Source\PSoC4/BLE_1.c ****     *  \param address: The device address of the remote device to connect to. 
1047:Generated_Source\PSoC4/BLE_1.c ****     *  
1048:Generated_Source\PSoC4/BLE_1.c ****     * \return
1049:Generated_Source\PSoC4/BLE_1.c ****     *  CYBLE_API_RESULT_T : Return value indicates if the function succeeded or 
1050:Generated_Source\PSoC4/BLE_1.c ****     *  failed. Following are the possible error codes.
1051:Generated_Source\PSoC4/BLE_1.c ****     *
1052:Generated_Source\PSoC4/BLE_1.c ****     *   Errors codes                       | Description
1053:Generated_Source\PSoC4/BLE_1.c ****     *   ------------                       | -----------
1054:Generated_Source\PSoC4/BLE_1.c ****     *   CYBLE_ERROR_OK                     | On successful operation.
1055:Generated_Source\PSoC4/BLE_1.c ****     *   CYBLE_ERROR_STACK_INTERNAL         | On error occurred in the BLE stack.
1056:Generated_Source\PSoC4/BLE_1.c ****     *   CYBLE_ERROR_INVALID_PARAMETER      | On passing an invalid parameter.
1057:Generated_Source\PSoC4/BLE_1.c ****     *   CYBLE_ERROR_INVALID_STATE          | On calling this function not in Disconnected state.
1058:Generated_Source\PSoC4/BLE_1.c ****     *  
1059:Generated_Source\PSoC4/BLE_1.c ****     ******************************************************************************/
1060:Generated_Source\PSoC4/BLE_1.c ****     CYBLE_API_RESULT_T CyBle_GapcConnectDevice(const CYBLE_GAP_BD_ADDR_T * address)
1061:Generated_Source\PSoC4/BLE_1.c ****     {
 452              		.loc 1 1061 0
 453              		.cfi_startproc
 454              		@ args = 0, pretend = 0, frame = 0
 455              		@ frame_needed = 0, uses_anonymous_args = 0
 456              	.LVL24:
 457 0000 10B5     		push	{r4, lr}
 458              		.cfi_def_cfa_offset 8
 459              		.cfi_offset 4, -8
 460              		.cfi_offset 14, -4
ARM GAS  C:\Users\jon\AppData\Local\Temp\cciWBaFQ.s 			page 28


1062:Generated_Source\PSoC4/BLE_1.c ****         CYBLE_API_RESULT_T apiResult;
1063:Generated_Source\PSoC4/BLE_1.c ****         uint8 i;
1064:Generated_Source\PSoC4/BLE_1.c **** 
1065:Generated_Source\PSoC4/BLE_1.c ****         if(CyBle_GetState() != CYBLE_STATE_DISCONNECTED)
 461              		.loc 1 1065 0
 462 0002 134B     		ldr	r3, .L34
 463 0004 1B78     		ldrb	r3, [r3]
 464 0006 052B     		cmp	r3, #5
 465 0008 1CD1     		bne	.L32
1066:Generated_Source\PSoC4/BLE_1.c ****         {
1067:Generated_Source\PSoC4/BLE_1.c ****             apiResult = CYBLE_ERROR_INVALID_STATE;
1068:Generated_Source\PSoC4/BLE_1.c ****         }
1069:Generated_Source\PSoC4/BLE_1.c ****         else if(address == NULL)
 466              		.loc 1 1069 0
 467 000a 0028     		cmp	r0, #0
 468 000c 1DD0     		beq	.L33
 469 000e 0023     		movs	r3, #0
 470 0010 05E0     		b	.L30
 471              	.LVL25:
 472              	.L31:
1070:Generated_Source\PSoC4/BLE_1.c ****         {
1071:Generated_Source\PSoC4/BLE_1.c ****             apiResult = CYBLE_ERROR_INVALID_PARAMETER;
1072:Generated_Source\PSoC4/BLE_1.c ****         }
1073:Generated_Source\PSoC4/BLE_1.c ****         else
1074:Generated_Source\PSoC4/BLE_1.c ****         {
1075:Generated_Source\PSoC4/BLE_1.c ****             for(i = 0u; i < CYBLE_GAP_BD_ADDR_SIZE; i++)
1076:Generated_Source\PSoC4/BLE_1.c ****             {
1077:Generated_Source\PSoC4/BLE_1.c ****                 cyBle_connectionParameters.peerBdAddr[i] = address->bdAddr[i];
 473              		.loc 1 1077 0 discriminator 3
 474 0012 C15C     		ldrb	r1, [r0, r3]
 475 0014 0F4A     		ldr	r2, .L34+4
 476 0016 D218     		adds	r2, r2, r3
 477 0018 5171     		strb	r1, [r2, #5]
1075:Generated_Source\PSoC4/BLE_1.c ****             {
 478              		.loc 1 1075 0 discriminator 3
 479 001a 0133     		adds	r3, r3, #1
 480              	.LVL26:
 481 001c DBB2     		uxtb	r3, r3
 482              	.LVL27:
 483              	.L30:
1075:Generated_Source\PSoC4/BLE_1.c ****             {
 484              		.loc 1 1075 0 is_stmt 0 discriminator 1
 485 001e 052B     		cmp	r3, #5
 486 0020 F7D9     		bls	.L31
1078:Generated_Source\PSoC4/BLE_1.c ****             }
1079:Generated_Source\PSoC4/BLE_1.c ****             cyBle_connectionParameters.peerAddrType = address -> type;
 487              		.loc 1 1079 0 is_stmt 1
 488 0022 8379     		ldrb	r3, [r0, #6]
 489              	.LVL28:
 490 0024 0B48     		ldr	r0, .L34+4
 491              	.LVL29:
 492 0026 C372     		strb	r3, [r0, #11]
1080:Generated_Source\PSoC4/BLE_1.c ****             apiResult = CyBle_GapcInitConnection(&cyBle_connectionParameters);
 493              		.loc 1 1080 0
 494 0028 FFF7FEFF 		bl	CyBle_GapcInitConnection
 495              	.LVL30:
 496 002c 041E     		subs	r4, r0, #0
ARM GAS  C:\Users\jon\AppData\Local\Temp\cciWBaFQ.s 			page 29


 497              	.LVL31:
1081:Generated_Source\PSoC4/BLE_1.c ****             
1082:Generated_Source\PSoC4/BLE_1.c ****             if(apiResult == CYBLE_ERROR_OK)
 498              		.loc 1 1082 0
 499 002e 0DD1     		bne	.L29
1083:Generated_Source\PSoC4/BLE_1.c ****             {
1084:Generated_Source\PSoC4/BLE_1.c ****                 CyBle_SetState(CYBLE_STATE_CONNECTING);
 500              		.loc 1 1084 0
 501 0030 0422     		movs	r2, #4
 502 0032 074B     		ldr	r3, .L34
 503 0034 1A70     		strb	r2, [r3]
1085:Generated_Source\PSoC4/BLE_1.c ****                 if(cyBle_connectingTimeout != 0u)
 504              		.loc 1 1085 0
 505 0036 084B     		ldr	r3, .L34+8
 506 0038 1888     		ldrh	r0, [r3]
 507              	.LVL32:
 508 003a 0028     		cmp	r0, #0
 509 003c 06D0     		beq	.L29
1086:Generated_Source\PSoC4/BLE_1.c ****                 {
1087:Generated_Source\PSoC4/BLE_1.c ****                     (void)CyBle_StartTimer(cyBle_connectingTimeout);
 510              		.loc 1 1087 0
 511 003e FFF7FEFF 		bl	CyBle_StartTimer
 512              	.LVL33:
 513 0042 03E0     		b	.L29
 514              	.LVL34:
 515              	.L32:
1067:Generated_Source\PSoC4/BLE_1.c ****         }
 516              		.loc 1 1067 0
 517 0044 0424     		movs	r4, #4
 518 0046 FF34     		adds	r4, r4, #255
 519 0048 00E0     		b	.L29
 520              	.L33:
1071:Generated_Source\PSoC4/BLE_1.c ****         }
 521              		.loc 1 1071 0
 522 004a 0124     		movs	r4, #1
 523              	.LVL35:
 524              	.L29:
1088:Generated_Source\PSoC4/BLE_1.c ****                 }
1089:Generated_Source\PSoC4/BLE_1.c ****             }
1090:Generated_Source\PSoC4/BLE_1.c ****         }
1091:Generated_Source\PSoC4/BLE_1.c ****         return (apiResult);
1092:Generated_Source\PSoC4/BLE_1.c ****     }
 525              		.loc 1 1092 0
 526 004c 2000     		movs	r0, r4
 527              		@ sp needed
 528              	.LVL36:
 529 004e 10BD     		pop	{r4, pc}
 530              	.L35:
 531              		.align	2
 532              	.L34:
 533 0050 00000000 		.word	cyBle_state
 534 0054 00000000 		.word	cyBle_connectionParameters
 535 0058 00000000 		.word	cyBle_connectingTimeout
 536              		.cfi_endproc
 537              	.LFE8:
 538              		.size	CyBle_GapcConnectDevice, .-CyBle_GapcConnectDevice
 539              		.section	.text.CyBle_GapcCancelDeviceConnection,"ax",%progbits
ARM GAS  C:\Users\jon\AppData\Local\Temp\cciWBaFQ.s 			page 30


 540              		.align	2
 541              		.global	CyBle_GapcCancelDeviceConnection
 542              		.code	16
 543              		.thumb_func
 544              		.type	CyBle_GapcCancelDeviceConnection, %function
 545              	CyBle_GapcCancelDeviceConnection:
 546              	.LFB9:
1093:Generated_Source\PSoC4/BLE_1.c ****     
1094:Generated_Source\PSoC4/BLE_1.c **** 
1095:Generated_Source\PSoC4/BLE_1.c ****     /******************************************************************************
1096:Generated_Source\PSoC4/BLE_1.c ****     * Function Name: CyBle_GapcCancelDeviceConnection
1097:Generated_Source\PSoC4/BLE_1.c ****     ***************************************************************************//**
1098:Generated_Source\PSoC4/BLE_1.c ****     * 
1099:Generated_Source\PSoC4/BLE_1.c ****     *  This function cancels a previously initiated connection with the remote 
1100:Generated_Source\PSoC4/BLE_1.c ****     *  device. It is a blocking function. No event is generated on calling this 
1101:Generated_Source\PSoC4/BLE_1.c ****     *  function. If the devices are already connected then this function should not
1102:Generated_Source\PSoC4/BLE_1.c ****     *  be used. If you intend to disconnect from an existing connection, the function
1103:Generated_Source\PSoC4/BLE_1.c ****     *  CyBle_GapDisconnect() should be used.
1104:Generated_Source\PSoC4/BLE_1.c ****     * 
1105:Generated_Source\PSoC4/BLE_1.c ****     * \return
1106:Generated_Source\PSoC4/BLE_1.c ****     *  CYBLE_API_RESULT_T : Return value indicates if the function succeeded or 
1107:Generated_Source\PSoC4/BLE_1.c ****     *  failed. Following are the possible error codes.
1108:Generated_Source\PSoC4/BLE_1.c ****     *
1109:Generated_Source\PSoC4/BLE_1.c ****     *   Errors codes                       | Description
1110:Generated_Source\PSoC4/BLE_1.c ****     *   ---------------------------------- | --------------------------------------
1111:Generated_Source\PSoC4/BLE_1.c ****     *   CYBLE_ERROR_OK                     | On successful operation.
1112:Generated_Source\PSoC4/BLE_1.c ****     *   CYBLE_ERROR_STACK_INTERNAL         | An error occurred in the BLE stack.
1113:Generated_Source\PSoC4/BLE_1.c ****     *   CYBLE_ERROR_INVALID_STATE          | On calling this function not in Connecting state.
1114:Generated_Source\PSoC4/BLE_1.c ****     *  
1115:Generated_Source\PSoC4/BLE_1.c ****     *******************************************************************************/
1116:Generated_Source\PSoC4/BLE_1.c ****     CYBLE_API_RESULT_T CyBle_GapcCancelDeviceConnection(void)
1117:Generated_Source\PSoC4/BLE_1.c ****     {
 547              		.loc 1 1117 0
 548              		.cfi_startproc
 549              		@ args = 0, pretend = 0, frame = 0
 550              		@ frame_needed = 0, uses_anonymous_args = 0
 551 0000 10B5     		push	{r4, lr}
 552              		.cfi_def_cfa_offset 8
 553              		.cfi_offset 4, -8
 554              		.cfi_offset 14, -4
1118:Generated_Source\PSoC4/BLE_1.c ****         CYBLE_API_RESULT_T apiResult;
1119:Generated_Source\PSoC4/BLE_1.c ****         
1120:Generated_Source\PSoC4/BLE_1.c ****         if(CyBle_GetState() != CYBLE_STATE_CONNECTING)
 555              		.loc 1 1120 0
 556 0002 0B4B     		ldr	r3, .L40
 557 0004 1B78     		ldrb	r3, [r3]
 558 0006 042B     		cmp	r3, #4
 559 0008 0ED1     		bne	.L39
1121:Generated_Source\PSoC4/BLE_1.c ****         {
1122:Generated_Source\PSoC4/BLE_1.c ****             apiResult = CYBLE_ERROR_INVALID_STATE;
1123:Generated_Source\PSoC4/BLE_1.c ****         }
1124:Generated_Source\PSoC4/BLE_1.c ****         else 
1125:Generated_Source\PSoC4/BLE_1.c ****         {
1126:Generated_Source\PSoC4/BLE_1.c ****             apiResult = CyBle_GapcCancelConnection();
 560              		.loc 1 1126 0
 561 000a FFF7FEFF 		bl	CyBle_GapcCancelConnection
 562              	.LVL37:
ARM GAS  C:\Users\jon\AppData\Local\Temp\cciWBaFQ.s 			page 31


 563 000e 0400     		movs	r4, r0
 564              	.LVL38:
1127:Generated_Source\PSoC4/BLE_1.c ****             
1128:Generated_Source\PSoC4/BLE_1.c ****             if(cyBle_connectingTimeout != 0u)
 565              		.loc 1 1128 0
 566 0010 084B     		ldr	r3, .L40+4
 567 0012 1B88     		ldrh	r3, [r3]
 568 0014 002B     		cmp	r3, #0
 569 0016 01D0     		beq	.L38
1129:Generated_Source\PSoC4/BLE_1.c ****             {
1130:Generated_Source\PSoC4/BLE_1.c ****                 (void)CyBle_StopTimer();
 570              		.loc 1 1130 0
 571 0018 FFF7FEFF 		bl	CyBle_StopTimer
 572              	.LVL39:
 573              	.L38:
1131:Generated_Source\PSoC4/BLE_1.c ****             }
1132:Generated_Source\PSoC4/BLE_1.c **** 
1133:Generated_Source\PSoC4/BLE_1.c ****             if(apiResult == CYBLE_ERROR_OK)
 574              		.loc 1 1133 0
 575 001c 002C     		cmp	r4, #0
 576 001e 05D1     		bne	.L37
1134:Generated_Source\PSoC4/BLE_1.c ****             {
1135:Generated_Source\PSoC4/BLE_1.c ****                 CyBle_SetState(CYBLE_STATE_DISCONNECTED);
 577              		.loc 1 1135 0
 578 0020 0522     		movs	r2, #5
 579 0022 034B     		ldr	r3, .L40
 580 0024 1A70     		strb	r2, [r3]
 581 0026 01E0     		b	.L37
 582              	.LVL40:
 583              	.L39:
1122:Generated_Source\PSoC4/BLE_1.c ****         }
 584              		.loc 1 1122 0
 585 0028 0424     		movs	r4, #4
 586 002a FF34     		adds	r4, r4, #255
 587              	.L37:
 588              	.LVL41:
1136:Generated_Source\PSoC4/BLE_1.c ****             }
1137:Generated_Source\PSoC4/BLE_1.c ****         }
1138:Generated_Source\PSoC4/BLE_1.c ****         return (apiResult);
1139:Generated_Source\PSoC4/BLE_1.c ****     }    
 589              		.loc 1 1139 0
 590 002c 2000     		movs	r0, r4
 591              		@ sp needed
 592              	.LVL42:
 593 002e 10BD     		pop	{r4, pc}
 594              	.L41:
 595              		.align	2
 596              	.L40:
 597 0030 00000000 		.word	cyBle_state
 598 0034 00000000 		.word	cyBle_connectingTimeout
 599              		.cfi_endproc
 600              	.LFE9:
 601              		.size	CyBle_GapcCancelDeviceConnection, .-CyBle_GapcCancelDeviceConnection
 602              		.section	.text.CyBle_GapSetLocalName,"ax",%progbits
 603              		.align	2
 604              		.global	CyBle_GapSetLocalName
 605              		.code	16
ARM GAS  C:\Users\jon\AppData\Local\Temp\cciWBaFQ.s 			page 32


 606              		.thumb_func
 607              		.type	CyBle_GapSetLocalName, %function
 608              	CyBle_GapSetLocalName:
 609              	.LFB10:
1140:Generated_Source\PSoC4/BLE_1.c **** 
1141:Generated_Source\PSoC4/BLE_1.c ****     
1142:Generated_Source\PSoC4/BLE_1.c **** #endif /* CYBLE_GAP_ROLE_CENTRAL */
1143:Generated_Source\PSoC4/BLE_1.c **** 
1144:Generated_Source\PSoC4/BLE_1.c **** 
1145:Generated_Source\PSoC4/BLE_1.c **** #if(CYBLE_GATT_ROLE_SERVER)
1146:Generated_Source\PSoC4/BLE_1.c **** 
1147:Generated_Source\PSoC4/BLE_1.c **** #if(CYBLE_GAP_ROLE_PERIPHERAL)
1148:Generated_Source\PSoC4/BLE_1.c **** 
1149:Generated_Source\PSoC4/BLE_1.c ****         /******************************************************************************
1150:Generated_Source\PSoC4/BLE_1.c ****         * Function Name: CyBle_ChangeAdLocalName
1151:Generated_Source\PSoC4/BLE_1.c ****         ***************************************************************************//**
1152:Generated_Source\PSoC4/BLE_1.c ****         *  This function is used to set the local device name in the advertisement or 
1153:Generated_Source\PSoC4/BLE_1.c ****         *  scan response data structure.
1154:Generated_Source\PSoC4/BLE_1.c ****         * 
1155:Generated_Source\PSoC4/BLE_1.c ****         *  \param name: The local device name string to be set in advertisement data 
1156:Generated_Source\PSoC4/BLE_1.c ****         *            structure.
1157:Generated_Source\PSoC4/BLE_1.c ****         *  \param dest: 0 - advertisement structure, not zero value selects scan response
1158:Generated_Source\PSoC4/BLE_1.c ****         *              structure.
1159:Generated_Source\PSoC4/BLE_1.c ****         * 
1160:Generated_Source\PSoC4/BLE_1.c ****         * \return
1161:Generated_Source\PSoC4/BLE_1.c ****         *  None
1162:Generated_Source\PSoC4/BLE_1.c ****         *  
1163:Generated_Source\PSoC4/BLE_1.c ****         *******************************************************************************/
1164:Generated_Source\PSoC4/BLE_1.c ****         static void CyBle_ChangeAdLocalName(const char8 name[], uint8 dest)
1165:Generated_Source\PSoC4/BLE_1.c ****         {
1166:Generated_Source\PSoC4/BLE_1.c ****             uint8 i;
1167:Generated_Source\PSoC4/BLE_1.c ****             uint8 flag = 0u;
1168:Generated_Source\PSoC4/BLE_1.c ****             uint8 adLength = 0u;
1169:Generated_Source\PSoC4/BLE_1.c ****             uint8 byteCounter = 0u;
1170:Generated_Source\PSoC4/BLE_1.c ****             uint8 *destBuffer;
1171:Generated_Source\PSoC4/BLE_1.c ****             uint8 maxLength;
1172:Generated_Source\PSoC4/BLE_1.c ****             
1173:Generated_Source\PSoC4/BLE_1.c ****             if(dest == 0u)      /* Destination - advertising structure */
1174:Generated_Source\PSoC4/BLE_1.c ****             {
1175:Generated_Source\PSoC4/BLE_1.c ****                 destBuffer = cyBle_discoveryData.advData;
1176:Generated_Source\PSoC4/BLE_1.c ****                 maxLength = cyBle_discoveryData.advDataLen;
1177:Generated_Source\PSoC4/BLE_1.c ****             }
1178:Generated_Source\PSoC4/BLE_1.c ****             else                /* Destination - scan response structure */
1179:Generated_Source\PSoC4/BLE_1.c ****             {
1180:Generated_Source\PSoC4/BLE_1.c ****                 destBuffer = cyBle_scanRspData.scanRspData;
1181:Generated_Source\PSoC4/BLE_1.c ****                 maxLength = cyBle_scanRspData.scanRspDataLen;
1182:Generated_Source\PSoC4/BLE_1.c ****             }
1183:Generated_Source\PSoC4/BLE_1.c ****             
1184:Generated_Source\PSoC4/BLE_1.c ****             while((byteCounter < maxLength) && (flag == 0u))
1185:Generated_Source\PSoC4/BLE_1.c ****             {
1186:Generated_Source\PSoC4/BLE_1.c ****                 adLength = destBuffer[byteCounter];
1187:Generated_Source\PSoC4/BLE_1.c ****                 
1188:Generated_Source\PSoC4/BLE_1.c ****                 if(0u != adLength)
1189:Generated_Source\PSoC4/BLE_1.c ****                 {
1190:Generated_Source\PSoC4/BLE_1.c ****                     /* Increment byte counter so it can point to AD type */
1191:Generated_Source\PSoC4/BLE_1.c ****                     byteCounter++;
1192:Generated_Source\PSoC4/BLE_1.c ****                     
ARM GAS  C:\Users\jon\AppData\Local\Temp\cciWBaFQ.s 			page 33


1193:Generated_Source\PSoC4/BLE_1.c ****                     if((destBuffer[byteCounter] == CYBLE_SHORT_LOCAL_NAME) || 
1194:Generated_Source\PSoC4/BLE_1.c ****                        (destBuffer[byteCounter] == CYBLE_COMPLETE_LOCAL_NAME))
1195:Generated_Source\PSoC4/BLE_1.c ****                     {
1196:Generated_Source\PSoC4/BLE_1.c ****                         /* Start of the Local Name AD type was fount. Set flag and exit the loop. *
1197:Generated_Source\PSoC4/BLE_1.c ****                         flag = 1u;
1198:Generated_Source\PSoC4/BLE_1.c ****                     }
1199:Generated_Source\PSoC4/BLE_1.c ****                     else
1200:Generated_Source\PSoC4/BLE_1.c ****                     {
1201:Generated_Source\PSoC4/BLE_1.c ****                         byteCounter += adLength;
1202:Generated_Source\PSoC4/BLE_1.c ****                     }
1203:Generated_Source\PSoC4/BLE_1.c ****                 }
1204:Generated_Source\PSoC4/BLE_1.c ****                 else
1205:Generated_Source\PSoC4/BLE_1.c ****                 {
1206:Generated_Source\PSoC4/BLE_1.c ****                     /* The end of advertisement data structure was encountered though exit the loop
1207:Generated_Source\PSoC4/BLE_1.c ****                     break;
1208:Generated_Source\PSoC4/BLE_1.c ****                 }
1209:Generated_Source\PSoC4/BLE_1.c ****             }
1210:Generated_Source\PSoC4/BLE_1.c ****             
1211:Generated_Source\PSoC4/BLE_1.c ****             if(0u != flag)
1212:Generated_Source\PSoC4/BLE_1.c ****             {
1213:Generated_Source\PSoC4/BLE_1.c ****                 /* Reuse "adLength" to hold location of the last character of local name in 
1214:Generated_Source\PSoC4/BLE_1.c ****                    AD structure. */
1215:Generated_Source\PSoC4/BLE_1.c ****                 adLength += byteCounter;
1216:Generated_Source\PSoC4/BLE_1.c ****                 
1217:Generated_Source\PSoC4/BLE_1.c ****                 /* Increment byte counter to point to start of the local Name string */
1218:Generated_Source\PSoC4/BLE_1.c ****                 byteCounter++;
1219:Generated_Source\PSoC4/BLE_1.c ****                 
1220:Generated_Source\PSoC4/BLE_1.c ****                 for(i = byteCounter; ((i < (adLength)) && (CYBLE_NULL_CHARCTER != name[i - byteCoun
1221:Generated_Source\PSoC4/BLE_1.c ****                 {
1222:Generated_Source\PSoC4/BLE_1.c ****                     destBuffer[i] = (uint8)name[i - byteCounter];
1223:Generated_Source\PSoC4/BLE_1.c ****                 }
1224:Generated_Source\PSoC4/BLE_1.c ****                 
1225:Generated_Source\PSoC4/BLE_1.c ****                 /* This loop handles the case when new local name is shorted than old one.
1226:Generated_Source\PSoC4/BLE_1.c ****                    In this case all remaining characters should be null characters. */
1227:Generated_Source\PSoC4/BLE_1.c ****                 while(adLength > i)
1228:Generated_Source\PSoC4/BLE_1.c ****                 {
1229:Generated_Source\PSoC4/BLE_1.c ****                     /* Terminate string */
1230:Generated_Source\PSoC4/BLE_1.c ****                     destBuffer[i] = (uint8)CYBLE_NULL_CHARCTER;
1231:Generated_Source\PSoC4/BLE_1.c ****                     i++;
1232:Generated_Source\PSoC4/BLE_1.c ****                 }
1233:Generated_Source\PSoC4/BLE_1.c ****             }
1234:Generated_Source\PSoC4/BLE_1.c ****         }
1235:Generated_Source\PSoC4/BLE_1.c ****         
1236:Generated_Source\PSoC4/BLE_1.c **** #endif /* (CYBLE_GAP_ROLE_PERIPHERAL) */  
1237:Generated_Source\PSoC4/BLE_1.c ****     
1238:Generated_Source\PSoC4/BLE_1.c ****     
1239:Generated_Source\PSoC4/BLE_1.c ****     /******************************************************************************
1240:Generated_Source\PSoC4/BLE_1.c ****     * Function Name: CyBle_GapSetLocalName
1241:Generated_Source\PSoC4/BLE_1.c ****     ***************************************************************************//**
1242:Generated_Source\PSoC4/BLE_1.c ****     *  This function is used to set the local device name - a Characteristic of the 
1243:Generated_Source\PSoC4/BLE_1.c ****     *  GAP Service. If the characteristic length entered in the component customizer
1244:Generated_Source\PSoC4/BLE_1.c ****     *  is shorter than the string specified by the "name" parameter, the local device
1245:Generated_Source\PSoC4/BLE_1.c ****     *  name will be cut to the length specified in the customizer.
1246:Generated_Source\PSoC4/BLE_1.c ****     * 
1247:Generated_Source\PSoC4/BLE_1.c ****     *  \param name: The local device name string. The name string to be written as
1248:Generated_Source\PSoC4/BLE_1.c ****     *              the local device name. It represents a UTF-8 encoded User
1249:Generated_Source\PSoC4/BLE_1.c ****     *              Friendly Descriptive Name for the device. The length of the local
ARM GAS  C:\Users\jon\AppData\Local\Temp\cciWBaFQ.s 			page 34


1250:Generated_Source\PSoC4/BLE_1.c ****     *              device string is entered into the component customizer and it can
1251:Generated_Source\PSoC4/BLE_1.c ****     *              be set to a value from 0 to 248 bytes. If the name contained in
1252:Generated_Source\PSoC4/BLE_1.c ****     *              the parameter is shorter than the length from the customizer, the
1253:Generated_Source\PSoC4/BLE_1.c ****     *              end of the name is indicated by a NULL octet (0x00).
1254:Generated_Source\PSoC4/BLE_1.c ****     * 
1255:Generated_Source\PSoC4/BLE_1.c ****     * \return
1256:Generated_Source\PSoC4/BLE_1.c ****     *  CYBLE_API_RESULT_T : Return value indicates if the function succeeded or 
1257:Generated_Source\PSoC4/BLE_1.c ****     *  failed. Following are the possible error codes.
1258:Generated_Source\PSoC4/BLE_1.c ****     *
1259:Generated_Source\PSoC4/BLE_1.c ****     *   Errors codes                       | Description
1260:Generated_Source\PSoC4/BLE_1.c ****     *   ------------                       | -----------
1261:Generated_Source\PSoC4/BLE_1.c ****     *   CYBLE_ERROR_OK                     | Function completed successfully.
1262:Generated_Source\PSoC4/BLE_1.c ****     *   CYBLE_ERROR_INVALID_PARAMETER      | On specifying NULL as input parameter
1263:Generated_Source\PSoC4/BLE_1.c ****     *  
1264:Generated_Source\PSoC4/BLE_1.c ****     *******************************************************************************/
1265:Generated_Source\PSoC4/BLE_1.c ****     CYBLE_API_RESULT_T CyBle_GapSetLocalName(const char8 name[])
1266:Generated_Source\PSoC4/BLE_1.c ****     {
 610              		.loc 1 1266 0
 611              		.cfi_startproc
 612              		@ args = 0, pretend = 0, frame = 0
 613              		@ frame_needed = 0, uses_anonymous_args = 0
 614              	.LVL43:
 615 0000 30B5     		push	{r4, r5, lr}
 616              		.cfi_def_cfa_offset 12
 617              		.cfi_offset 4, -12
 618              		.cfi_offset 5, -8
 619              		.cfi_offset 14, -4
 620              	.LVL44:
1267:Generated_Source\PSoC4/BLE_1.c ****         CYBLE_API_RESULT_T apiResult = CYBLE_ERROR_OK;
1268:Generated_Source\PSoC4/BLE_1.c ****         uint8 i;
1269:Generated_Source\PSoC4/BLE_1.c ****         char8 *ptr;
1270:Generated_Source\PSoC4/BLE_1.c ****         uint8 charLen;
1271:Generated_Source\PSoC4/BLE_1.c **** 
1272:Generated_Source\PSoC4/BLE_1.c ****         if(NULL != name)
 621              		.loc 1 1272 0
 622 0002 0028     		cmp	r0, #0
 623 0004 1ED0     		beq	.L47
1273:Generated_Source\PSoC4/BLE_1.c ****         {
1274:Generated_Source\PSoC4/BLE_1.c ****             /* Get the pointer to the Device Name characteristic  */
1275:Generated_Source\PSoC4/BLE_1.c ****             ptr = (char8 *) CYBLE_GATT_DB_ATTR_GET_ATTR_GEN_PTR(cyBle_gaps.deviceNameCharHandle);
 624              		.loc 1 1275 0
 625 0006 114B     		ldr	r3, .L49
 626 0008 5B88     		ldrh	r3, [r3, #2]
 627 000a 013B     		subs	r3, r3, #1
 628 000c 104D     		ldr	r5, .L49+4
 629 000e 9A00     		lsls	r2, r3, #2
 630 0010 D418     		adds	r4, r2, r3
 631 0012 A100     		lsls	r1, r4, #2
 632 0014 6918     		adds	r1, r5, r1
 633 0016 0969     		ldr	r1, [r1, #16]
 634 0018 4C68     		ldr	r4, [r1, #4]
 635              	.LVL45:
1276:Generated_Source\PSoC4/BLE_1.c **** 
1277:Generated_Source\PSoC4/BLE_1.c ****             /* First need to get the maximum length of the characteristic data in the GATT
1278:Generated_Source\PSoC4/BLE_1.c ****                 database to make sure there is enough place for the data. The length
1279:Generated_Source\PSoC4/BLE_1.c ****                 can't be longer than 248, so only the LSB of 16 bit of length is to
1280:Generated_Source\PSoC4/BLE_1.c ****                 be used. */
ARM GAS  C:\Users\jon\AppData\Local\Temp\cciWBaFQ.s 			page 35


1281:Generated_Source\PSoC4/BLE_1.c ****             charLen = (uint8)CYBLE_GATT_DB_ATTR_GET_ATTR_GEN_MAX_LEN(cyBle_gaps.deviceNameCharHandl
 636              		.loc 1 1281 0
 637 001a D318     		adds	r3, r2, r3
 638 001c 9A00     		lsls	r2, r3, #2
 639 001e AA18     		adds	r2, r5, r2
 640 0020 117B     		ldrb	r1, [r2, #12]
 641              	.LVL46:
1282:Generated_Source\PSoC4/BLE_1.c **** 
1283:Generated_Source\PSoC4/BLE_1.c ****             /* Copy name into characteristic */
1284:Generated_Source\PSoC4/BLE_1.c ****             for(i = 0u; ((i < charLen) && (CYBLE_NULL_CHARCTER != name[i])); i++)
 642              		.loc 1 1284 0
 643 0022 0023     		movs	r3, #0
 644 0024 02E0     		b	.L44
 645              	.LVL47:
 646              	.L46:
1285:Generated_Source\PSoC4/BLE_1.c ****             {
1286:Generated_Source\PSoC4/BLE_1.c ****                 ptr[i] = name[i];
 647              		.loc 1 1286 0 discriminator 4
 648 0026 E254     		strb	r2, [r4, r3]
1284:Generated_Source\PSoC4/BLE_1.c ****             {
 649              		.loc 1 1284 0 discriminator 4
 650 0028 0133     		adds	r3, r3, #1
 651              	.LVL48:
 652 002a DBB2     		uxtb	r3, r3
 653              	.LVL49:
 654              	.L44:
1284:Generated_Source\PSoC4/BLE_1.c ****             {
 655              		.loc 1 1284 0 is_stmt 0 discriminator 1
 656 002c 8B42     		cmp	r3, r1
 657 002e 02D2     		bcs	.L45
1284:Generated_Source\PSoC4/BLE_1.c ****             {
 658              		.loc 1 1284 0 discriminator 3
 659 0030 C25C     		ldrb	r2, [r0, r3]
 660 0032 002A     		cmp	r2, #0
 661 0034 F7D1     		bne	.L46
 662              	.L45:
1287:Generated_Source\PSoC4/BLE_1.c ****             }
1288:Generated_Source\PSoC4/BLE_1.c **** 
1289:Generated_Source\PSoC4/BLE_1.c ****             if(i < charLen)
 663              		.loc 1 1289 0 is_stmt 1
 664 0036 8B42     		cmp	r3, r1
 665 0038 06D2     		bcs	.L48
1290:Generated_Source\PSoC4/BLE_1.c ****             {
1291:Generated_Source\PSoC4/BLE_1.c ****                 /* Terminate string */
1292:Generated_Source\PSoC4/BLE_1.c ****                 ptr[i] = CYBLE_NULL_CHARCTER;
 666              		.loc 1 1292 0
 667 003a E318     		adds	r3, r4, r3
 668              	.LVL50:
 669 003c 0022     		movs	r2, #0
 670 003e 1A70     		strb	r2, [r3]
1267:Generated_Source\PSoC4/BLE_1.c ****         uint8 i;
 671              		.loc 1 1267 0
 672 0040 0020     		movs	r0, #0
 673              	.LVL51:
 674 0042 02E0     		b	.L43
 675              	.LVL52:
 676              	.L47:
ARM GAS  C:\Users\jon\AppData\Local\Temp\cciWBaFQ.s 			page 36


1293:Generated_Source\PSoC4/BLE_1.c ****             }
1294:Generated_Source\PSoC4/BLE_1.c ****             
1295:Generated_Source\PSoC4/BLE_1.c ****             /* Set new actual length */
1296:Generated_Source\PSoC4/BLE_1.c ****             
1297:Generated_Source\PSoC4/BLE_1.c ****             /* Update device name in advertising and scan response structure */
1298:Generated_Source\PSoC4/BLE_1.c ****             #if(CYBLE_GAP_ROLE_PERIPHERAL)
1299:Generated_Source\PSoC4/BLE_1.c ****                 CyBle_ChangeAdLocalName(name, 0u);
1300:Generated_Source\PSoC4/BLE_1.c ****                 CyBle_ChangeAdLocalName(name, 1u);
1301:Generated_Source\PSoC4/BLE_1.c ****             #endif /* (CYBLE_GAP_ROLE_PERIPHERAL) */
1302:Generated_Source\PSoC4/BLE_1.c ****         }
1303:Generated_Source\PSoC4/BLE_1.c ****         else
1304:Generated_Source\PSoC4/BLE_1.c ****         {
1305:Generated_Source\PSoC4/BLE_1.c ****             apiResult = CYBLE_ERROR_INVALID_PARAMETER;
 677              		.loc 1 1305 0
 678 0044 0120     		movs	r0, #1
 679              	.LVL53:
 680 0046 00E0     		b	.L43
 681              	.LVL54:
 682              	.L48:
1267:Generated_Source\PSoC4/BLE_1.c ****         uint8 i;
 683              		.loc 1 1267 0
 684 0048 0020     		movs	r0, #0
 685              	.LVL55:
 686              	.L43:
1306:Generated_Source\PSoC4/BLE_1.c ****         }
1307:Generated_Source\PSoC4/BLE_1.c ****         
1308:Generated_Source\PSoC4/BLE_1.c ****         return(apiResult);
1309:Generated_Source\PSoC4/BLE_1.c ****     }
 687              		.loc 1 1309 0
 688              		@ sp needed
 689 004a 30BD     		pop	{r4, r5, pc}
 690              	.L50:
 691              		.align	2
 692              	.L49:
 693 004c 00000000 		.word	cyBle_gaps
 694 0050 00000000 		.word	cyBle_gattDB
 695              		.cfi_endproc
 696              	.LFE10:
 697              		.size	CyBle_GapSetLocalName, .-CyBle_GapSetLocalName
 698              		.section	.text.CyBle_GapGetLocalName,"ax",%progbits
 699              		.align	2
 700              		.global	CyBle_GapGetLocalName
 701              		.code	16
 702              		.thumb_func
 703              		.type	CyBle_GapGetLocalName, %function
 704              	CyBle_GapGetLocalName:
 705              	.LFB11:
1310:Generated_Source\PSoC4/BLE_1.c **** 
1311:Generated_Source\PSoC4/BLE_1.c **** 
1312:Generated_Source\PSoC4/BLE_1.c ****     /******************************************************************************
1313:Generated_Source\PSoC4/BLE_1.c ****     * Function Name: CyBle_GapGetLocalName
1314:Generated_Source\PSoC4/BLE_1.c ****     ***************************************************************************//**
1315:Generated_Source\PSoC4/BLE_1.c ****     *  
1316:Generated_Source\PSoC4/BLE_1.c ****     *  This function is used to read the local device name - a Characteristic of the 
1317:Generated_Source\PSoC4/BLE_1.c ****     *  GAP Service.
1318:Generated_Source\PSoC4/BLE_1.c ****     * 
1319:Generated_Source\PSoC4/BLE_1.c ****     * \param name: The local device name string. Used to read the local name to the
ARM GAS  C:\Users\jon\AppData\Local\Temp\cciWBaFQ.s 			page 37


1320:Generated_Source\PSoC4/BLE_1.c ****     *             given string array. It represents a UTF-8 encoded User Friendly 
1321:Generated_Source\PSoC4/BLE_1.c ****     *             Descriptive Name for the device. The length of the local device
1322:Generated_Source\PSoC4/BLE_1.c ****     *             string is entered into the component customizer and it can be set
1323:Generated_Source\PSoC4/BLE_1.c ****     *             to a value from 0 to 248 bytes. If the name contained in the
1324:Generated_Source\PSoC4/BLE_1.c ****     *             parameter is shorter than the length from the customizer, the end
1325:Generated_Source\PSoC4/BLE_1.c ****     *             of the name is indicated by a NULL octet (0x00).
1326:Generated_Source\PSoC4/BLE_1.c ****     * 
1327:Generated_Source\PSoC4/BLE_1.c ****     * \return
1328:Generated_Source\PSoC4/BLE_1.c ****     *  CYBLE_API_RESULT_T : Return value indicates if the function succeeded or 
1329:Generated_Source\PSoC4/BLE_1.c ****     *  failed. Following are the possible error codes.
1330:Generated_Source\PSoC4/BLE_1.c ****     *
1331:Generated_Source\PSoC4/BLE_1.c ****     *   Errors codes                       | Description
1332:Generated_Source\PSoC4/BLE_1.c ****     *   ------------                       | -----------
1333:Generated_Source\PSoC4/BLE_1.c ****     *   CYBLE_ERROR_OK                     | Function completed successfully.
1334:Generated_Source\PSoC4/BLE_1.c ****     *   CYBLE_ERROR_INVALID_PARAMETER      | On specifying NULL as input parameter
1335:Generated_Source\PSoC4/BLE_1.c ****     *
1336:Generated_Source\PSoC4/BLE_1.c ****     *******************************************************************************/
1337:Generated_Source\PSoC4/BLE_1.c ****     CYBLE_API_RESULT_T CyBle_GapGetLocalName(char8 name[])
1338:Generated_Source\PSoC4/BLE_1.c ****     {
 706              		.loc 1 1338 0
 707              		.cfi_startproc
 708              		@ args = 0, pretend = 0, frame = 0
 709              		@ frame_needed = 0, uses_anonymous_args = 0
 710              	.LVL56:
 711 0000 10B5     		push	{r4, lr}
 712              		.cfi_def_cfa_offset 8
 713              		.cfi_offset 4, -8
 714              		.cfi_offset 14, -4
 715              	.LVL57:
1339:Generated_Source\PSoC4/BLE_1.c ****         CYBLE_API_RESULT_T apiResult = CYBLE_ERROR_OK;
1340:Generated_Source\PSoC4/BLE_1.c ****         uint8 charLen;
1341:Generated_Source\PSoC4/BLE_1.c ****         uint8 i;
1342:Generated_Source\PSoC4/BLE_1.c ****         char8 *ptr;
1343:Generated_Source\PSoC4/BLE_1.c **** 
1344:Generated_Source\PSoC4/BLE_1.c ****         if(NULL != name)
 716              		.loc 1 1344 0
 717 0002 0028     		cmp	r0, #0
 718 0004 19D0     		beq	.L56
1345:Generated_Source\PSoC4/BLE_1.c ****         {
1346:Generated_Source\PSoC4/BLE_1.c ****             /* Get the pointer to the Device Name characteristic  */
1347:Generated_Source\PSoC4/BLE_1.c ****             ptr = (char8 *) CYBLE_GATT_DB_ATTR_GET_ATTR_GEN_PTR(cyBle_gaps.deviceNameCharHandle);
 719              		.loc 1 1347 0
 720 0006 0E4B     		ldr	r3, .L57
 721 0008 5B88     		ldrh	r3, [r3, #2]
 722 000a 013B     		subs	r3, r3, #1
 723 000c 9A00     		lsls	r2, r3, #2
 724 000e D318     		adds	r3, r2, r3
 725 0010 9A00     		lsls	r2, r3, #2
 726 0012 0C4B     		ldr	r3, .L57+4
 727 0014 9A18     		adds	r2, r3, r2
 728 0016 1369     		ldr	r3, [r2, #16]
 729 0018 5C68     		ldr	r4, [r3, #4]
 730              	.LVL58:
1348:Generated_Source\PSoC4/BLE_1.c **** 
1349:Generated_Source\PSoC4/BLE_1.c ****             /* First need to get the length of the characteristic data in the GATT
1350:Generated_Source\PSoC4/BLE_1.c ****                 database to make sure there is enough place for the data. The length
1351:Generated_Source\PSoC4/BLE_1.c ****                 can't be longer than 248, so only the LSB of 16 bit of length is to
ARM GAS  C:\Users\jon\AppData\Local\Temp\cciWBaFQ.s 			page 38


1352:Generated_Source\PSoC4/BLE_1.c ****                 be used. */
1353:Generated_Source\PSoC4/BLE_1.c ****             charLen = (uint8)CYBLE_GATT_DB_ATTR_GET_ATTR_GEN_LEN(cyBle_gaps.deviceNameCharHandle);
 731              		.loc 1 1353 0
 732 001a 1978     		ldrb	r1, [r3]
 733              	.LVL59:
1354:Generated_Source\PSoC4/BLE_1.c **** 
1355:Generated_Source\PSoC4/BLE_1.c ****             /* Copy name from characteristic */
1356:Generated_Source\PSoC4/BLE_1.c ****             for(i = 0u; ((i < charLen) && (CYBLE_NULL_CHARCTER != ptr[i])); i++)
 734              		.loc 1 1356 0
 735 001c 0023     		movs	r3, #0
 736 001e 02E0     		b	.L53
 737              	.LVL60:
 738              	.L55:
1357:Generated_Source\PSoC4/BLE_1.c ****             {
1358:Generated_Source\PSoC4/BLE_1.c ****                 name[i] = ptr[i];
 739              		.loc 1 1358 0 discriminator 4
 740 0020 C254     		strb	r2, [r0, r3]
1356:Generated_Source\PSoC4/BLE_1.c ****             {
 741              		.loc 1 1356 0 discriminator 4
 742 0022 0133     		adds	r3, r3, #1
 743              	.LVL61:
 744 0024 DBB2     		uxtb	r3, r3
 745              	.LVL62:
 746              	.L53:
1356:Generated_Source\PSoC4/BLE_1.c ****             {
 747              		.loc 1 1356 0 is_stmt 0 discriminator 1
 748 0026 8B42     		cmp	r3, r1
 749 0028 02D2     		bcs	.L54
1356:Generated_Source\PSoC4/BLE_1.c ****             {
 750              		.loc 1 1356 0 discriminator 3
 751 002a E25C     		ldrb	r2, [r4, r3]
 752 002c 002A     		cmp	r2, #0
 753 002e F7D1     		bne	.L55
 754              	.L54:
1359:Generated_Source\PSoC4/BLE_1.c ****             }
1360:Generated_Source\PSoC4/BLE_1.c **** 
1361:Generated_Source\PSoC4/BLE_1.c ****             /* Terminate string */
1362:Generated_Source\PSoC4/BLE_1.c ****             name[i] = CYBLE_NULL_CHARCTER;
 755              		.loc 1 1362 0 is_stmt 1
 756 0030 C318     		adds	r3, r0, r3
 757              	.LVL63:
 758 0032 0022     		movs	r2, #0
 759 0034 1A70     		strb	r2, [r3]
1339:Generated_Source\PSoC4/BLE_1.c ****         uint8 charLen;
 760              		.loc 1 1339 0
 761 0036 0020     		movs	r0, #0
 762              	.LVL64:
 763 0038 00E0     		b	.L52
 764              	.LVL65:
 765              	.L56:
1363:Generated_Source\PSoC4/BLE_1.c ****         }
1364:Generated_Source\PSoC4/BLE_1.c ****         else
1365:Generated_Source\PSoC4/BLE_1.c ****         {
1366:Generated_Source\PSoC4/BLE_1.c ****             apiResult = CYBLE_ERROR_INVALID_PARAMETER;
 766              		.loc 1 1366 0
 767 003a 0120     		movs	r0, #1
 768              	.LVL66:
ARM GAS  C:\Users\jon\AppData\Local\Temp\cciWBaFQ.s 			page 39


 769              	.L52:
1367:Generated_Source\PSoC4/BLE_1.c ****         }
1368:Generated_Source\PSoC4/BLE_1.c ****         
1369:Generated_Source\PSoC4/BLE_1.c ****         return(apiResult);
1370:Generated_Source\PSoC4/BLE_1.c ****     }
 770              		.loc 1 1370 0
 771              		@ sp needed
 772 003c 10BD     		pop	{r4, pc}
 773              	.L58:
 774 003e C046     		.align	2
 775              	.L57:
 776 0040 00000000 		.word	cyBle_gaps
 777 0044 00000000 		.word	cyBle_gattDB
 778              		.cfi_endproc
 779              	.LFE11:
 780              		.size	CyBle_GapGetLocalName, .-CyBle_GapGetLocalName
 781              		.section	.text.CyBle_Get16ByPtr,"ax",%progbits
 782              		.align	2
 783              		.global	CyBle_Get16ByPtr
 784              		.code	16
 785              		.thumb_func
 786              		.type	CyBle_Get16ByPtr, %function
 787              	CyBle_Get16ByPtr:
 788              	.LFB12:
1371:Generated_Source\PSoC4/BLE_1.c **** 
1372:Generated_Source\PSoC4/BLE_1.c **** #endif /* (CYBLE_GATT_ROLE_SERVER) */
1373:Generated_Source\PSoC4/BLE_1.c **** 
1374:Generated_Source\PSoC4/BLE_1.c **** 
1375:Generated_Source\PSoC4/BLE_1.c **** /******************************************************************************
1376:Generated_Source\PSoC4/BLE_1.c **** * Function Name: CyBle_Get16ByPtr
1377:Generated_Source\PSoC4/BLE_1.c **** ***************************************************************************//**
1378:Generated_Source\PSoC4/BLE_1.c **** * 
1379:Generated_Source\PSoC4/BLE_1.c **** *  Returns the two-bytes value by using a pointer to the LSB.
1380:Generated_Source\PSoC4/BLE_1.c **** * 
1381:Generated_Source\PSoC4/BLE_1.c **** *  \param ptr: Pointer to the LSB of two-bytes data (little endian).
1382:Generated_Source\PSoC4/BLE_1.c **** * 
1383:Generated_Source\PSoC4/BLE_1.c **** *  \return
1384:Generated_Source\PSoC4/BLE_1.c **** *  uint16: Two-bytes data.
1385:Generated_Source\PSoC4/BLE_1.c **** * 
1386:Generated_Source\PSoC4/BLE_1.c **** ******************************************************************************/
1387:Generated_Source\PSoC4/BLE_1.c **** uint16 CyBle_Get16ByPtr(const uint8 ptr[])
1388:Generated_Source\PSoC4/BLE_1.c **** {
 789              		.loc 1 1388 0
 790              		.cfi_startproc
 791              		@ args = 0, pretend = 0, frame = 0
 792              		@ frame_needed = 0, uses_anonymous_args = 0
 793              		@ link register save eliminated.
 794              	.LVL67:
1389:Generated_Source\PSoC4/BLE_1.c ****     return ((uint16) ptr[0u] | ((uint16) (((uint16) ptr[1u]) << 8u)));
 795              		.loc 1 1389 0
 796 0000 0378     		ldrb	r3, [r0]
 797 0002 4078     		ldrb	r0, [r0, #1]
 798              	.LVL68:
 799 0004 0002     		lsls	r0, r0, #8
 800 0006 1843     		orrs	r0, r3
1390:Generated_Source\PSoC4/BLE_1.c **** }
 801              		.loc 1 1390 0
ARM GAS  C:\Users\jon\AppData\Local\Temp\cciWBaFQ.s 			page 40


 802              		@ sp needed
 803 0008 7047     		bx	lr
 804              		.cfi_endproc
 805              	.LFE12:
 806              		.size	CyBle_Get16ByPtr, .-CyBle_Get16ByPtr
 807 000a C046     		.section	.text.CyBle_Set16ByPtr,"ax",%progbits
 808              		.align	2
 809              		.global	CyBle_Set16ByPtr
 810              		.code	16
 811              		.thumb_func
 812              		.type	CyBle_Set16ByPtr, %function
 813              	CyBle_Set16ByPtr:
 814              	.LFB13:
1391:Generated_Source\PSoC4/BLE_1.c **** 
1392:Generated_Source\PSoC4/BLE_1.c **** 
1393:Generated_Source\PSoC4/BLE_1.c **** /******************************************************************************
1394:Generated_Source\PSoC4/BLE_1.c **** * Function Name: CyBle_Set16ByPtr
1395:Generated_Source\PSoC4/BLE_1.c **** ***************************************************************************//**
1396:Generated_Source\PSoC4/BLE_1.c **** * 
1397:Generated_Source\PSoC4/BLE_1.c **** *  Sets the two-bytes value by using a pointer to the LSB.
1398:Generated_Source\PSoC4/BLE_1.c **** * 
1399:Generated_Source\PSoC4/BLE_1.c **** *  \param ptr:    Pointer to the LSB of two-bytes data (little endian).
1400:Generated_Source\PSoC4/BLE_1.c **** *  \param value:  Two-bytes data to be written.
1401:Generated_Source\PSoC4/BLE_1.c **** * 
1402:Generated_Source\PSoC4/BLE_1.c **** *  \return
1403:Generated_Source\PSoC4/BLE_1.c **** *  None
1404:Generated_Source\PSoC4/BLE_1.c **** * 
1405:Generated_Source\PSoC4/BLE_1.c **** ******************************************************************************/
1406:Generated_Source\PSoC4/BLE_1.c **** void CyBle_Set16ByPtr(uint8 ptr[], uint16 value)
1407:Generated_Source\PSoC4/BLE_1.c **** {
 815              		.loc 1 1407 0
 816              		.cfi_startproc
 817              		@ args = 0, pretend = 0, frame = 0
 818              		@ frame_needed = 0, uses_anonymous_args = 0
 819              		@ link register save eliminated.
 820              	.LVL69:
1408:Generated_Source\PSoC4/BLE_1.c ****     ptr[0u] = (uint8) value;
 821              		.loc 1 1408 0
 822 0000 0170     		strb	r1, [r0]
1409:Generated_Source\PSoC4/BLE_1.c ****     ptr[1u] = (uint8) (value >> 8u);
 823              		.loc 1 1409 0
 824 0002 090A     		lsrs	r1, r1, #8
 825              	.LVL70:
 826 0004 4170     		strb	r1, [r0, #1]
1410:Generated_Source\PSoC4/BLE_1.c **** }
 827              		.loc 1 1410 0
 828              		@ sp needed
 829 0006 7047     		bx	lr
 830              		.cfi_endproc
 831              	.LFE13:
 832              		.size	CyBle_Set16ByPtr, .-CyBle_Set16ByPtr
 833              		.global	cyBle_sflashDeviceAddress
 834              		.global	cyBle_deviceAddress
 835              		.comm	CyBle_ApplCallback,4,4
 836              		.global	cyBle_discoveryInfo
 837              		.comm	cyBle_connectingTimeout,2,2
 838              		.comm	cyBle_connectionParameters,26,4
ARM GAS  C:\Users\jon\AppData\Local\Temp\cciWBaFQ.s 			page 41


 839              		.global	cyBle_stackMemoryRam
 840              		.global	cyBle_initVar
 841              		.section	.rodata
 842              		.align	2
 843              		.set	.LANCHOR1,. + 0
 844              	.LC0:
 845 0000 2400     		.short	36
 846 0002 03       		.byte	3
 847 0003 00       		.space	1
 848 0004 3000     		.short	48
 849 0006 01       		.byte	1
 850 0007 00       		.space	1
 851 0008 2800     		.short	40
 852 000a 02       		.byte	2
 853 000b 00       		.space	1
 854 000c 2400     		.short	36
 855 000e 01       		.byte	1
 856 000f 00       		.space	1
 857 0010 2400     		.short	36
 858 0012 01       		.byte	1
 859 0013 00       		.space	1
 860              		.data
 861              		.align	2
 862              		.set	.LANCHOR0,. + 0
 863              		.type	cyBle_discoveryInfo, %object
 864              		.size	cyBle_discoveryInfo, 12
 865              	cyBle_discoveryInfo:
 866 0000 02       		.byte	2
 867 0001 01       		.byte	1
 868 0002 3000     		.short	48
 869 0004 3000     		.short	48
 870 0006 00       		.byte	0
 871 0007 00       		.byte	0
 872 0008 1E00     		.short	30
 873 000a 00       		.byte	0
 874 000b 00       		.space	1
 875              		.type	cyBle_sflashDeviceAddress, %object
 876              		.size	cyBle_sflashDeviceAddress, 4
 877              	cyBle_sflashDeviceAddress:
 878 000c 00F4FF0F 		.word	268432384
 879              		.type	cyBle_deviceAddress, %object
 880              		.size	cyBle_deviceAddress, 7
 881              	cyBle_deviceAddress:
 882 0010 89       		.byte	-119
 883 0011 00       		.byte	0
 884 0012 00       		.byte	0
 885 0013 5B       		.byte	91
 886 0014 A0       		.byte	-96
 887 0015 00       		.byte	0
 888 0016 00       		.byte	0
 889              		.section	.noinit,"aw",%progbits
 890              		.align	3
 891              		.set	.LANCHOR3,. + 0
 892              		.type	cyBle_stackMemoryRam, %object
 893              		.size	cyBle_stackMemoryRam, 2784
 894              	cyBle_stackMemoryRam:
 895 0000 00000000 		.space	2784
ARM GAS  C:\Users\jon\AppData\Local\Temp\cciWBaFQ.s 			page 42


 895      00000000 
 895      00000000 
 895      00000000 
 895      00000000 
 896              		.bss
 897              		.set	.LANCHOR2,. + 0
 898              		.type	cyBle_initVar, %object
 899              		.size	cyBle_initVar, 1
 900              	cyBle_initVar:
 901 0000 00       		.space	1
 902              		.text
 903              	.Letext0:
 904              		.file 2 "Generated_Source\\PSoC4\\cytypes.h"
 905              		.file 3 "Generated_Source\\PSoC4\\BLE_1_Stack.h"
 906              		.file 4 "Generated_Source\\PSoC4\\BLE_1_StackGap.h"
 907              		.file 5 "Generated_Source\\PSoC4\\BLE_1_StackGatt.h"
 908              		.file 6 "Generated_Source\\PSoC4\\BLE_1_StackGattDb.h"
 909              		.file 7 "Generated_Source\\PSoC4\\BLE_1.h"
 910              		.file 8 "Generated_Source\\PSoC4\\BLE_1_gatt.h"
 911              		.file 9 "Generated_Source\\PSoC4\\BLE_1_eventHandler.h"
 912              		.file 10 "Generated_Source\\PSoC4\\BLE_1_custom.h"
 913              		.file 11 "Generated_Source\\PSoC4\\BLE_1_StackHostMain.h"