ARM GAS  C:\Users\jon\AppData\Local\Temp\ccHZWauF.s 			page 1


   1              		.syntax unified
   2              		.cpu cortex-m0
   3              		.fpu softvfp
   4              		.eabi_attribute 20, 1
   5              		.eabi_attribute 21, 1
   6              		.eabi_attribute 23, 3
   7              		.eabi_attribute 24, 1
   8              		.eabi_attribute 25, 1
   9              		.eabi_attribute 26, 1
  10              		.eabi_attribute 30, 1
  11              		.eabi_attribute 34, 0
  12              		.eabi_attribute 18, 4
  13              		.thumb
  14              		.syntax unified
  15              		.file	"BLE_1_gatt.c"
  16              		.text
  17              	.Ltext0:
  18              		.cfi_sections	.debug_frame
  19              		.section	.text.CyBle_GattsReInitGattDb,"ax",%progbits
  20              		.align	2
  21              		.global	CyBle_GattsReInitGattDb
  22              		.code	16
  23              		.thumb_func
  24              		.type	CyBle_GattsReInitGattDb, %function
  25              	CyBle_GattsReInitGattDb:
  26              	.LFB2:
  27              		.file 1 "Generated_Source\\PSoC4\\BLE_1_gatt.c"
   1:Generated_Source\PSoC4/BLE_1_gatt.c **** /***************************************************************************//**
   2:Generated_Source\PSoC4/BLE_1_gatt.c **** * \file CYBLE_gatt.c
   3:Generated_Source\PSoC4/BLE_1_gatt.c **** * \version 3.54
   4:Generated_Source\PSoC4/BLE_1_gatt.c **** * 
   5:Generated_Source\PSoC4/BLE_1_gatt.c **** * \brief
   6:Generated_Source\PSoC4/BLE_1_gatt.c **** *  This file contains the source code for the GATT API of the BLE Component.
   7:Generated_Source\PSoC4/BLE_1_gatt.c **** * 
   8:Generated_Source\PSoC4/BLE_1_gatt.c **** ********************************************************************************
   9:Generated_Source\PSoC4/BLE_1_gatt.c **** * \copyright
  10:Generated_Source\PSoC4/BLE_1_gatt.c **** * Copyright 2014-2018, Cypress Semiconductor Corporation.  All rights reserved.
  11:Generated_Source\PSoC4/BLE_1_gatt.c **** * You may use this file only in accordance with the license, terms, conditions,
  12:Generated_Source\PSoC4/BLE_1_gatt.c **** * disclaimers, and limitations in the end user license agreement accompanying
  13:Generated_Source\PSoC4/BLE_1_gatt.c **** * the software package with which this file was provided.
  14:Generated_Source\PSoC4/BLE_1_gatt.c **** *******************************************************************************/
  15:Generated_Source\PSoC4/BLE_1_gatt.c **** 
  16:Generated_Source\PSoC4/BLE_1_gatt.c **** 
  17:Generated_Source\PSoC4/BLE_1_gatt.c **** #include "BLE_1_eventHandler.h"
  18:Generated_Source\PSoC4/BLE_1_gatt.c **** 
  19:Generated_Source\PSoC4/BLE_1_gatt.c **** 
  20:Generated_Source\PSoC4/BLE_1_gatt.c **** /***************************************
  21:Generated_Source\PSoC4/BLE_1_gatt.c **** * Global variables
  22:Generated_Source\PSoC4/BLE_1_gatt.c **** ***************************************/
  23:Generated_Source\PSoC4/BLE_1_gatt.c **** 
  24:Generated_Source\PSoC4/BLE_1_gatt.c **** CYBLE_STATE_T cyBle_state;
  25:Generated_Source\PSoC4/BLE_1_gatt.c **** 
  26:Generated_Source\PSoC4/BLE_1_gatt.c **** #if ((CYBLE_MODE_PROFILE) && (CYBLE_BONDING_REQUIREMENT == CYBLE_BONDING_YES))
  27:Generated_Source\PSoC4/BLE_1_gatt.c ****     
  28:Generated_Source\PSoC4/BLE_1_gatt.c **** #if(CYBLE_MODE_PROFILE)
  29:Generated_Source\PSoC4/BLE_1_gatt.c ****     #if defined(__ARMCC_VERSION)
  30:Generated_Source\PSoC4/BLE_1_gatt.c ****         CY_ALIGN(CYDEV_FLS_ROW_SIZE) const CY_BLE_FLASH_STORAGE cyBle_flashStorage CY_SECTION(".cy_
ARM GAS  C:\Users\jon\AppData\Local\Temp\ccHZWauF.s 			page 2


  31:Generated_Source\PSoC4/BLE_1_gatt.c ****     #elif defined (__GNUC__)
  32:Generated_Source\PSoC4/BLE_1_gatt.c ****         const CY_BLE_FLASH_STORAGE cyBle_flashStorage CY_SECTION(".cy_checksum_exclude")
  33:Generated_Source\PSoC4/BLE_1_gatt.c ****             CY_ALIGN(CYDEV_FLS_ROW_SIZE) =
  34:Generated_Source\PSoC4/BLE_1_gatt.c ****     #elif defined (__ICCARM__)
  35:Generated_Source\PSoC4/BLE_1_gatt.c ****         #pragma data_alignment=CY_FLASH_SIZEOF_ROW
  36:Generated_Source\PSoC4/BLE_1_gatt.c ****         #pragma location=".cy_checksum_exclude"
  37:Generated_Source\PSoC4/BLE_1_gatt.c ****         const CY_BLE_FLASH_STORAGE cyBle_flashStorage =
  38:Generated_Source\PSoC4/BLE_1_gatt.c ****     #endif  /* (__ARMCC_VERSION) */
  39:Generated_Source\PSoC4/BLE_1_gatt.c ****     {
  40:Generated_Source\PSoC4/BLE_1_gatt.c ****         { 0x00u, 0x00u, 0x00u, 0x00u, 0x00u, 0x00u, 0x00u, 0x00u, 0x00u, 0x00u, 0x00u, 0x00u, 0x00u
  41:Generated_Source\PSoC4/BLE_1_gatt.c ****         0x00u, 0x00u, 0x00u, 0x00u, 0x00u, 0x00u, 0x00u, 0x00u, 0x00u, 0x00u, 0x00u, 0x00u, 0x00u, 
  42:Generated_Source\PSoC4/BLE_1_gatt.c ****         0x00u, 0x00u, 0x00u, 0x00u, 0x00u, 0x00u, 0x00u, 0x00u, 0x00u, 0x00u, 0x00u, 0x00u, 0x00u, 
  43:Generated_Source\PSoC4/BLE_1_gatt.c ****         0x00u, 0x00u, 0x00u, 0x00u, 0x00u, 0x00u, 0x00u, 0x00u, 0x00u, 0x00u, 0x00u, 0x00u, 0x00u, 
  44:Generated_Source\PSoC4/BLE_1_gatt.c ****         0x00u, 0x00u, 0x00u, 0x00u, 0x00u, 0x00u, 0x00u, 0x00u, 0x00u, 0x00u, 0x00u, 0x00u, 0x00u, 
  45:Generated_Source\PSoC4/BLE_1_gatt.c ****         0x00u, 0x00u, 0x00u, 0x00u, 0x00u, 0x00u, 0x00u, 0x00u, 0x00u, 0x00u, 0x00u, 0x00u, 0x00u, 
  46:Generated_Source\PSoC4/BLE_1_gatt.c ****         0x00u, 0x00u, 0x00u, 0x00u, 0x00u, 0x00u, 0x00u, 0x00u, 0x00u, 0x00u, 0x00u, 0x00u, 0x00u, 
  47:Generated_Source\PSoC4/BLE_1_gatt.c ****         0x00u, 0x00u, 0x00u, 0x00u, 0x00u, 0x00u, 0x00u, 0x00u, 0x00u, 0x00u, 0x00u, 0x00u, 0x00u, 
  48:Generated_Source\PSoC4/BLE_1_gatt.c ****         0x00u, 0x00u, 0x00u, 0x00u, 0x00u, 0x00u, 0x00u, 0x00u, 0x00u, 0x00u, 0x00u, 0x00u, 0x00u, 
  49:Generated_Source\PSoC4/BLE_1_gatt.c ****         0x00u, 0x00u, 0x00u, 0x00u, 0x00u, 0x00u, 0x00u, 0x00u, 0x00u, 0x00u, 0x00u, 0x00u, 0x00u, 
  50:Generated_Source\PSoC4/BLE_1_gatt.c ****         0x00u, 0x00u, 0x00u, 0x00u, 0x00u, 0x00u, 0x00u, 0x00u, 0x00u, 0x00u, 0x00u, 0x00u, 0x00u, 
  51:Generated_Source\PSoC4/BLE_1_gatt.c ****         0x00u, 0x00u, 0x00u, 0x00u, 0x00u, 0x00u, 0x00u, 0x00u, 0x00u, 0x00u, 0x00u, 0x00u, 0x00u, 
  52:Generated_Source\PSoC4/BLE_1_gatt.c ****         0x00u, 0x00u, 0x00u, 0x00u, 0x00u, 0x00u, 0x00u, 0x00u, 0x00u, 0x00u, 0x00u, 0x00u, 0x00u, 
  53:Generated_Source\PSoC4/BLE_1_gatt.c ****         0x00u, 0x00u, 0x00u, 0x00u, 0x00u, 0x00u, 0x00u, 0x00u, 0x00u, 0x00u, 0x00u, 0x00u, 0x00u, 
  54:Generated_Source\PSoC4/BLE_1_gatt.c ****         0x00u, 0x00u, 0x00u, 0x00u, 0x00u, 0x00u, 0x00u, 0x00u, 0x00u, 0x00u, 0x00u, 0x00u, 0x00u, 
  55:Generated_Source\PSoC4/BLE_1_gatt.c ****         0x00u, 0x00u, 0x00u, 0x00u, 0x00u, 0x00u, 0x00u, 0x00u, 0x00u, 0x00u, 0x00u, 0x00u, 0x00u, 
  56:Generated_Source\PSoC4/BLE_1_gatt.c ****         0x00u, 0x00u, 0x00u, 0x00u, 0x00u, 0x00u, 0x00u, 0x00u, 0x00u, 0x00u, 0x00u, 0x00u, 0x00u, 
  57:Generated_Source\PSoC4/BLE_1_gatt.c ****         0x00u, 0x00u, 0x00u, 0x00u, 0x00u, 0x00u, 0x00u, 0x00u, 0x00u, 0x00u, 0x00u, 0x00u, 0x00u, 
  58:Generated_Source\PSoC4/BLE_1_gatt.c ****         0x00u, 0x00u, 0x00u, 0x00u, 0x00u, 0x00u, 0x00u, 0x00u, 0x00u, 0x00u, 0x00u, 0x00u, 0x00u, 
  59:Generated_Source\PSoC4/BLE_1_gatt.c ****         0x00u, 0x00u, 0x00u, 0x00u, 0x00u, 0x00u, 0x00u, 0x00u, 0x00u, 0x00u, 0x00u, 0x00u, 0x00u, 
  60:Generated_Source\PSoC4/BLE_1_gatt.c ****         0x00u, 0x00u, 0x00u, 0x00u, 0x00u, 0x00u, 0x00u, 0x00u, 0x00u, 0x00u, 0x00u, 0x00u, 0x00u, 
  61:Generated_Source\PSoC4/BLE_1_gatt.c ****         0x00u, 0x00u, 0x00u, 0x00u, 0x00u, 0x00u, 0x00u, 0x00u, 0x00u, 0x00u, 0x00u, 0x00u, 0x00u, 
  62:Generated_Source\PSoC4/BLE_1_gatt.c ****         0x00u, 0x00u, 0x00u, 0x00u, 0x00u, 0x00u, 0x00u, 0x00u, 0x00u, 0x00u, 0x00u, 0x00u, 0x00u, 
  63:Generated_Source\PSoC4/BLE_1_gatt.c ****         0x00u, 0x00u, 0x00u, 0x00u, 0x00u, 0x00u, 0x00u, 0x00u, 0x00u, 0x00u, 0x00u, 0x00u, 0x00u, 
  64:Generated_Source\PSoC4/BLE_1_gatt.c ****         0x00u, 0x00u, 0x00u, 0x00u, 0x00u, 0x00u, 0x00u, 0x00u, 0x00u, 0x00u, 0x00u, 0x00u, 0x00u, 
  65:Generated_Source\PSoC4/BLE_1_gatt.c ****         0x00u, 0x00u, 0x00u, 0x00u, 0x00u, 0x00u, 0x00u, 0x00u, 0x00u, 0x00u, 0x00u, 0x00u, 0x00u, 
  66:Generated_Source\PSoC4/BLE_1_gatt.c ****         0x00u, 0x00u, 0x00u, 0x00u, 0x00u, 0x00u, 0x00u, 0x00u, 0x00u, 0x00u, 0x00u, 0x00u, 0x00u, 
  67:Generated_Source\PSoC4/BLE_1_gatt.c ****         0x00u, 0x00u, 0x00u, 0x00u, 0x00u, 0x00u, 0x00u, 0x00u, 0x00u, 0x00u, 0x00u, 0x00u, 0x00u, 
  68:Generated_Source\PSoC4/BLE_1_gatt.c ****         0x00u, 0x00u, 0x00u, 0x00u, 0x00u, 0x00u, 0x00u, 0x00u, 0x00u, 0x00u, 0x00u, 0x00u, 0x00u, 
  69:Generated_Source\PSoC4/BLE_1_gatt.c ****         0x00u, 0x00u, 0x00u, 0x00u, 0x00u, 0x00u, 0x00u, 0x00u, 0x00u, 0x00u, 0x00u, 0x00u, 0x00u, 
  70:Generated_Source\PSoC4/BLE_1_gatt.c ****         0x00u, 0x00u, 0x00u, 0x00u, 0x00u, 0x00u, 0x00u, 0x00u, 0x00u, 0x00u, 0x00u, 0x00u, 0x00u, 
  71:Generated_Source\PSoC4/BLE_1_gatt.c ****         0x00u, 0x00u, 0x00u, 0x00u, 0x00u, 0x00u, 0x00u, 0x00u, 0x00u, 0x00u, 0x00u, 0x00u, 0x00u, 
  72:Generated_Source\PSoC4/BLE_1_gatt.c ****         0x00u, 0x00u, 0x00u, 0x00u, 0x00u, 0x00u, 0x00u, 0x00u, 0x00u, 0x00u, 0x00u, 0x00u, 0x00u, 
  73:Generated_Source\PSoC4/BLE_1_gatt.c ****         0x00u, 0x00u, 0x00u, 0x00u, 0x00u, 0x00u, 0x00u, 0x00u, 0x00u, 0x00u, 0x00u, 0x00u, 0x00u, 
  74:Generated_Source\PSoC4/BLE_1_gatt.c ****         0x00u, 0x00u, 0x00u, 0x00u, 0x00u, 0x00u, 0x00u, 0x00u, 0x00u, 0x00u, 0x00u, 0x00u, 0x00u, 
  75:Generated_Source\PSoC4/BLE_1_gatt.c ****         0x00u, 0x00u, 0x00u, 0x00u, 0x00u, 0x00u, 0x00u, 0x00u, 0x00u, 0x00u, 0x00u, 0x00u, 0x00u, 
  76:Generated_Source\PSoC4/BLE_1_gatt.c ****         0x00u, 0x00u, 0x00u, 0x00u, 0x00u, 0x00u, 0x00u, 0x00u, 0x00u, 0x00u, 0x00u, 0x00u, 0x00u, 
  77:Generated_Source\PSoC4/BLE_1_gatt.c ****         0x00u, 0x00u, 0x00u, 0x00u, 0x00u, 0x00u, 0x00u, 0x00u, 0x00u, 0x00u, 0x00u, 0x00u, 0x00u, 
  78:Generated_Source\PSoC4/BLE_1_gatt.c ****         0x00u, 0x00u, 0x00u, 0x00u, 0x00u, 0x00u, 0x00u, 0x00u, 0x00u, 0x00u, 0x00u, 0x00u, 0x00u, 
  79:Generated_Source\PSoC4/BLE_1_gatt.c ****         0x00u, 0x00u, 0x00u, 0x00u, 0x00u, 0x00u, 0x00u, 0x00u, 0x00u, 0x00u }, 
  80:Generated_Source\PSoC4/BLE_1_gatt.c ****         {{
  81:Generated_Source\PSoC4/BLE_1_gatt.c ****             0x00u, 0x00u,
  82:Generated_Source\PSoC4/BLE_1_gatt.c ****         },
  83:Generated_Source\PSoC4/BLE_1_gatt.c ****         {
  84:Generated_Source\PSoC4/BLE_1_gatt.c ****             0x00u, 0x00u,
  85:Generated_Source\PSoC4/BLE_1_gatt.c ****         },
  86:Generated_Source\PSoC4/BLE_1_gatt.c ****         {
  87:Generated_Source\PSoC4/BLE_1_gatt.c ****             0x00u, 0x00u,
ARM GAS  C:\Users\jon\AppData\Local\Temp\ccHZWauF.s 			page 3


  88:Generated_Source\PSoC4/BLE_1_gatt.c ****         },
  89:Generated_Source\PSoC4/BLE_1_gatt.c ****         {
  90:Generated_Source\PSoC4/BLE_1_gatt.c ****             0x00u, 0x00u,
  91:Generated_Source\PSoC4/BLE_1_gatt.c ****         },
  92:Generated_Source\PSoC4/BLE_1_gatt.c ****         {
  93:Generated_Source\PSoC4/BLE_1_gatt.c ****             0x00u, 0x00u,
  94:Generated_Source\PSoC4/BLE_1_gatt.c ****         }}, 
  95:Generated_Source\PSoC4/BLE_1_gatt.c ****         0x02u, /* CYBLE_GATT_DB_CCCD_COUNT */ 
  96:Generated_Source\PSoC4/BLE_1_gatt.c ****         0x05u, /* CYBLE_GAP_MAX_BONDED_DEVICE */ 
  97:Generated_Source\PSoC4/BLE_1_gatt.c ****     };
  98:Generated_Source\PSoC4/BLE_1_gatt.c **** #endif /* (CYBLE_MODE_PROFILE) */
  99:Generated_Source\PSoC4/BLE_1_gatt.c **** 
 100:Generated_Source\PSoC4/BLE_1_gatt.c **** #endif  /* (CYBLE_MODE_PROFILE) && (CYBLE_BONDING_REQUIREMENT == CYBLE_BONDING_YES) */
 101:Generated_Source\PSoC4/BLE_1_gatt.c **** 
 102:Generated_Source\PSoC4/BLE_1_gatt.c **** #if(CYBLE_GATT_ROLE_SERVER)
 103:Generated_Source\PSoC4/BLE_1_gatt.c ****     
 104:Generated_Source\PSoC4/BLE_1_gatt.c ****     const CYBLE_GATTS_T cyBle_gatts =
 105:Generated_Source\PSoC4/BLE_1_gatt.c **** {
 106:Generated_Source\PSoC4/BLE_1_gatt.c ****     0x000Au,    /* Handle of the GATT service */
 107:Generated_Source\PSoC4/BLE_1_gatt.c ****     0x000Cu,    /* Handle of the Service Changed characteristic */
 108:Generated_Source\PSoC4/BLE_1_gatt.c ****     0x000Du,    /* Handle of the Client Characteristic Configuration descriptor */
 109:Generated_Source\PSoC4/BLE_1_gatt.c **** };
 110:Generated_Source\PSoC4/BLE_1_gatt.c ****     
 111:Generated_Source\PSoC4/BLE_1_gatt.c ****     static uint8 cyBle_attValues[0x12u] = {
 112:Generated_Source\PSoC4/BLE_1_gatt.c ****     /* Device Name */
 113:Generated_Source\PSoC4/BLE_1_gatt.c ****     (uint8)'C', (uint8)'l', (uint8)'i', (uint8)'e', (uint8)'n', (uint8)'t', (uint8)' ', (uint8)'B',
 114:Generated_Source\PSoC4/BLE_1_gatt.c ****     (uint8)'E',
 115:Generated_Source\PSoC4/BLE_1_gatt.c **** 
 116:Generated_Source\PSoC4/BLE_1_gatt.c ****     /* Appearance */
 117:Generated_Source\PSoC4/BLE_1_gatt.c ****     0x00u, 0x00u,
 118:Generated_Source\PSoC4/BLE_1_gatt.c **** 
 119:Generated_Source\PSoC4/BLE_1_gatt.c ****     /* Central Address Resolution */
 120:Generated_Source\PSoC4/BLE_1_gatt.c ****     0x00u,
 121:Generated_Source\PSoC4/BLE_1_gatt.c **** 
 122:Generated_Source\PSoC4/BLE_1_gatt.c ****     /* Resolvable Private Address Only */
 123:Generated_Source\PSoC4/BLE_1_gatt.c ****     0x00u,
 124:Generated_Source\PSoC4/BLE_1_gatt.c **** 
 125:Generated_Source\PSoC4/BLE_1_gatt.c ****     /* Service Changed */
 126:Generated_Source\PSoC4/BLE_1_gatt.c ****     0x00u, 0x00u, 0x00u, 0x00u,
 127:Generated_Source\PSoC4/BLE_1_gatt.c **** 
 128:Generated_Source\PSoC4/BLE_1_gatt.c **** };
 129:Generated_Source\PSoC4/BLE_1_gatt.c **** #if(CYBLE_GATT_DB_CCCD_COUNT != 0u)
 130:Generated_Source\PSoC4/BLE_1_gatt.c **** uint8 cyBle_attValuesCCCD[CYBLE_GATT_DB_CCCD_COUNT];
 131:Generated_Source\PSoC4/BLE_1_gatt.c **** #endif /* CYBLE_GATT_DB_CCCD_COUNT != 0u */
 132:Generated_Source\PSoC4/BLE_1_gatt.c **** 
 133:Generated_Source\PSoC4/BLE_1_gatt.c **** CYBLE_GATTS_ATT_GEN_VAL_LEN_T cyBle_attValuesLen[CYBLE_GATT_DB_ATT_VAL_COUNT] = {
 134:Generated_Source\PSoC4/BLE_1_gatt.c ****     { 0x000Au, (void *)&cyBle_attValues[0] }, /* Device Name */
 135:Generated_Source\PSoC4/BLE_1_gatt.c ****     { 0x0002u, (void *)&cyBle_attValues[10] }, /* Appearance */
 136:Generated_Source\PSoC4/BLE_1_gatt.c ****     { 0x0001u, (void *)&cyBle_attValues[12] }, /* Central Address Resolution */
 137:Generated_Source\PSoC4/BLE_1_gatt.c ****     { 0x0001u, (void *)&cyBle_attValues[13] }, /* Resolvable Private Address Only */
 138:Generated_Source\PSoC4/BLE_1_gatt.c ****     { 0x0004u, (void *)&cyBle_attValues[14] }, /* Service Changed */
 139:Generated_Source\PSoC4/BLE_1_gatt.c ****     { 0x0002u, (void *)&cyBle_attValuesCCCD[0] }, /* Client Characteristic Configuration */
 140:Generated_Source\PSoC4/BLE_1_gatt.c **** };
 141:Generated_Source\PSoC4/BLE_1_gatt.c **** 
 142:Generated_Source\PSoC4/BLE_1_gatt.c **** const CYBLE_GATTS_DB_T cyBle_gattDB[0x0Du] = {
 143:Generated_Source\PSoC4/BLE_1_gatt.c ****     { 0x0001u, 0x2800u /* Primary service                     */, 0x00000001u /*       */, 0x0009u,
 144:Generated_Source\PSoC4/BLE_1_gatt.c ****     { 0x0002u, 0x2803u /* Characteristic                      */, 0x00020001u /* rd    */, 0x0003u,
ARM GAS  C:\Users\jon\AppData\Local\Temp\ccHZWauF.s 			page 4


 145:Generated_Source\PSoC4/BLE_1_gatt.c ****     { 0x0003u, 0x2A00u /* Device Name                         */, 0x01020001u /* rd    */, 0x0003u,
 146:Generated_Source\PSoC4/BLE_1_gatt.c ****     { 0x0004u, 0x2803u /* Characteristic                      */, 0x00020001u /* rd    */, 0x0005u,
 147:Generated_Source\PSoC4/BLE_1_gatt.c ****     { 0x0005u, 0x2A01u /* Appearance                          */, 0x01020001u /* rd    */, 0x0005u,
 148:Generated_Source\PSoC4/BLE_1_gatt.c ****     { 0x0006u, 0x2803u /* Characteristic                      */, 0x00020001u /* rd    */, 0x0007u,
 149:Generated_Source\PSoC4/BLE_1_gatt.c ****     { 0x0007u, 0x2AA6u /* Central Address Resolution          */, 0x01020001u /* rd    */, 0x0007u,
 150:Generated_Source\PSoC4/BLE_1_gatt.c ****     { 0x0008u, 0x2803u /* Characteristic                      */, 0x00020001u /* rd    */, 0x0009u,
 151:Generated_Source\PSoC4/BLE_1_gatt.c ****     { 0x0009u, 0x2AC9u /* Resolvable Private Address Only     */, 0x01020001u /* rd    */, 0x0009u,
 152:Generated_Source\PSoC4/BLE_1_gatt.c ****     { 0x000Au, 0x2800u /* Primary service                     */, 0x00000001u /*       */, 0x000Du,
 153:Generated_Source\PSoC4/BLE_1_gatt.c ****     { 0x000Bu, 0x2803u /* Characteristic                      */, 0x00200001u /* ind   */, 0x000Du,
 154:Generated_Source\PSoC4/BLE_1_gatt.c ****     { 0x000Cu, 0x2A05u /* Service Changed                     */, 0x01200000u /* ind   */, 0x000Du,
 155:Generated_Source\PSoC4/BLE_1_gatt.c ****     { 0x000Du, 0x2902u /* Client Characteristic Configuration */, 0x010A0101u /* rd,wr */, 0x000Du,
 156:Generated_Source\PSoC4/BLE_1_gatt.c **** };
 157:Generated_Source\PSoC4/BLE_1_gatt.c **** 
 158:Generated_Source\PSoC4/BLE_1_gatt.c **** 
 159:Generated_Source\PSoC4/BLE_1_gatt.c **** #endif /* (CYBLE_GATT_ROLE_SERVER) */
 160:Generated_Source\PSoC4/BLE_1_gatt.c **** 
 161:Generated_Source\PSoC4/BLE_1_gatt.c **** #if(CYBLE_GATT_ROLE_CLIENT)
 162:Generated_Source\PSoC4/BLE_1_gatt.c ****     
 163:Generated_Source\PSoC4/BLE_1_gatt.c **** CYBLE_CLIENT_STATE_T cyBle_clientState;
 164:Generated_Source\PSoC4/BLE_1_gatt.c **** CYBLE_GATTC_T cyBle_gattc;
 165:Generated_Source\PSoC4/BLE_1_gatt.c **** CYBLE_GATT_ATTR_HANDLE_RANGE_T cyBle_gattcDiscoveryRange;
 166:Generated_Source\PSoC4/BLE_1_gatt.c ****     
 167:Generated_Source\PSoC4/BLE_1_gatt.c **** #endif /* (CYBLE_GATT_ROLE_CLIENT) */
 168:Generated_Source\PSoC4/BLE_1_gatt.c **** 
 169:Generated_Source\PSoC4/BLE_1_gatt.c **** 
 170:Generated_Source\PSoC4/BLE_1_gatt.c **** #if(CYBLE_GATT_ROLE_SERVER)
 171:Generated_Source\PSoC4/BLE_1_gatt.c **** 
 172:Generated_Source\PSoC4/BLE_1_gatt.c **** /****************************************************************************** 
 173:Generated_Source\PSoC4/BLE_1_gatt.c **** * Function Name: CyBle_GattsReInitGattDb
 174:Generated_Source\PSoC4/BLE_1_gatt.c **** ***************************************************************************//**
 175:Generated_Source\PSoC4/BLE_1_gatt.c **** * 
 176:Generated_Source\PSoC4/BLE_1_gatt.c **** *  Reinitializes the GATT database.
 177:Generated_Source\PSoC4/BLE_1_gatt.c **** * 
 178:Generated_Source\PSoC4/BLE_1_gatt.c **** *  \return
 179:Generated_Source\PSoC4/BLE_1_gatt.c **** *  CYBLE_API_RESULT_T: A function result states if it succeeded or failed with
 180:Generated_Source\PSoC4/BLE_1_gatt.c **** *  error codes:
 181:Generated_Source\PSoC4/BLE_1_gatt.c **** 
 182:Generated_Source\PSoC4/BLE_1_gatt.c **** *  Errors codes                          | Description
 183:Generated_Source\PSoC4/BLE_1_gatt.c **** *  ------------                          | -----------
 184:Generated_Source\PSoC4/BLE_1_gatt.c **** *  CYBLE_ERROR_OK						 | GATT database was reinitialized successfully.
 185:Generated_Source\PSoC4/BLE_1_gatt.c **** *  CYBLE_ERROR_INVALID_STATE             | If the function is called in any state except CYBLE_STAT
 186:Generated_Source\PSoC4/BLE_1_gatt.c **** *  CYBLE_ERROR_INVALID_PARAMETER         | If the Database has zero entries or is a NULL pointer.
 187:Generated_Source\PSoC4/BLE_1_gatt.c **** * 
 188:Generated_Source\PSoC4/BLE_1_gatt.c **** ******************************************************************************/
 189:Generated_Source\PSoC4/BLE_1_gatt.c **** CYBLE_API_RESULT_T CyBle_GattsReInitGattDb(void)
 190:Generated_Source\PSoC4/BLE_1_gatt.c **** {
  28              		.loc 1 190 0
  29              		.cfi_startproc
  30              		@ args = 0, pretend = 0, frame = 0
  31              		@ frame_needed = 0, uses_anonymous_args = 0
  32 0000 10B5     		push	{r4, lr}
  33              		.cfi_def_cfa_offset 8
  34              		.cfi_offset 4, -8
  35              		.cfi_offset 14, -4
 191:Generated_Source\PSoC4/BLE_1_gatt.c ****     CYBLE_API_RESULT_T apiResult;
 192:Generated_Source\PSoC4/BLE_1_gatt.c ****     
 193:Generated_Source\PSoC4/BLE_1_gatt.c ****     if(CyBle_GetState() == CYBLE_STATE_DISCONNECTED)
ARM GAS  C:\Users\jon\AppData\Local\Temp\ccHZWauF.s 			page 5


  36              		.loc 1 193 0
  37 0002 064B     		ldr	r3, .L4
  38 0004 1B78     		ldrb	r3, [r3]
  39 0006 052B     		cmp	r3, #5
  40 0008 05D1     		bne	.L3
 194:Generated_Source\PSoC4/BLE_1_gatt.c ****     {
 195:Generated_Source\PSoC4/BLE_1_gatt.c ****         apiResult = CyBle_GattsDbRegister(cyBle_gattDB, CYBLE_GATT_DB_INDEX_COUNT, CYBLE_GATT_DB_MA
  41              		.loc 1 195 0
  42 000a 0A22     		movs	r2, #10
  43 000c 0D21     		movs	r1, #13
  44 000e 0448     		ldr	r0, .L4+4
  45 0010 FFF7FEFF 		bl	CyBle_GattsDbRegister
  46              	.LVL0:
  47 0014 01E0     		b	.L2
  48              	.LVL1:
  49              	.L3:
 196:Generated_Source\PSoC4/BLE_1_gatt.c ****     }
 197:Generated_Source\PSoC4/BLE_1_gatt.c ****     else
 198:Generated_Source\PSoC4/BLE_1_gatt.c ****     {
 199:Generated_Source\PSoC4/BLE_1_gatt.c ****         apiResult = CYBLE_ERROR_INVALID_STATE;
  50              		.loc 1 199 0
  51 0016 0420     		movs	r0, #4
  52 0018 FF30     		adds	r0, r0, #255
  53              	.L2:
  54              	.LVL2:
 200:Generated_Source\PSoC4/BLE_1_gatt.c ****     }
 201:Generated_Source\PSoC4/BLE_1_gatt.c ****     
 202:Generated_Source\PSoC4/BLE_1_gatt.c ****     return(apiResult);
 203:Generated_Source\PSoC4/BLE_1_gatt.c **** }
  55              		.loc 1 203 0
  56              		@ sp needed
  57 001a 10BD     		pop	{r4, pc}
  58              	.L5:
  59              		.align	2
  60              	.L4:
  61 001c 00000000 		.word	cyBle_state
  62 0020 00000000 		.word	.LANCHOR0
  63              		.cfi_endproc
  64              	.LFE2:
  65              		.size	CyBle_GattsReInitGattDb, .-CyBle_GattsReInitGattDb
  66              		.section	.text.CyBle_GattsWriteEventHandler,"ax",%progbits
  67              		.align	2
  68              		.global	CyBle_GattsWriteEventHandler
  69              		.code	16
  70              		.thumb_func
  71              		.type	CyBle_GattsWriteEventHandler, %function
  72              	CyBle_GattsWriteEventHandler:
  73              	.LFB3:
 204:Generated_Source\PSoC4/BLE_1_gatt.c **** 
 205:Generated_Source\PSoC4/BLE_1_gatt.c **** 
 206:Generated_Source\PSoC4/BLE_1_gatt.c **** /****************************************************************************** 
 207:Generated_Source\PSoC4/BLE_1_gatt.c **** * Function Name: CyBle_GattsWriteEventHandler
 208:Generated_Source\PSoC4/BLE_1_gatt.c **** ***************************************************************************//**
 209:Generated_Source\PSoC4/BLE_1_gatt.c **** * 
 210:Generated_Source\PSoC4/BLE_1_gatt.c **** *  Handles the Write Request Event for GATT service.
 211:Generated_Source\PSoC4/BLE_1_gatt.c **** * 
 212:Generated_Source\PSoC4/BLE_1_gatt.c **** *  \param eventParam: The pointer to the data structure specified by the event.
ARM GAS  C:\Users\jon\AppData\Local\Temp\ccHZWauF.s 			page 6


 213:Generated_Source\PSoC4/BLE_1_gatt.c **** * 
 214:Generated_Source\PSoC4/BLE_1_gatt.c **** *  \return
 215:Generated_Source\PSoC4/BLE_1_gatt.c **** *  CYBLE_GATT_ERR_CODE_T: A function returns one of the following status 
 216:Generated_Source\PSoC4/BLE_1_gatt.c **** *  values.
 217:Generated_Source\PSoC4/BLE_1_gatt.c **** 
 218:Generated_Source\PSoC4/BLE_1_gatt.c **** *  Errors codes                          | Description
 219:Generated_Source\PSoC4/BLE_1_gatt.c **** *  --------------------                  | -----------
 220:Generated_Source\PSoC4/BLE_1_gatt.c **** *  CYBLE_GATT_ERR_NONE                   | Write is successful.
 221:Generated_Source\PSoC4/BLE_1_gatt.c **** * 
 222:Generated_Source\PSoC4/BLE_1_gatt.c **** ******************************************************************************/
 223:Generated_Source\PSoC4/BLE_1_gatt.c **** CYBLE_GATT_ERR_CODE_T CyBle_GattsWriteEventHandler(CYBLE_GATTS_WRITE_REQ_PARAM_T *eventParam)
 224:Generated_Source\PSoC4/BLE_1_gatt.c **** {
  74              		.loc 1 224 0
  75              		.cfi_startproc
  76              		@ args = 0, pretend = 0, frame = 0
  77              		@ frame_needed = 0, uses_anonymous_args = 0
  78              	.LVL3:
  79 0000 70B5     		push	{r4, r5, r6, lr}
  80              		.cfi_def_cfa_offset 16
  81              		.cfi_offset 4, -16
  82              		.cfi_offset 5, -12
  83              		.cfi_offset 6, -8
  84              		.cfi_offset 14, -4
  85 0002 0500     		movs	r5, r0
  86              	.LVL4:
 225:Generated_Source\PSoC4/BLE_1_gatt.c ****     CYBLE_GATT_ERR_CODE_T gattErr = CYBLE_GATT_ERR_NONE;
 226:Generated_Source\PSoC4/BLE_1_gatt.c ****     
 227:Generated_Source\PSoC4/BLE_1_gatt.c ****     /* Client Characteristic Configuration descriptor write request */
 228:Generated_Source\PSoC4/BLE_1_gatt.c ****     if(eventParam->handleValPair.attrHandle == cyBle_gatts.cccdHandle)
  87              		.loc 1 228 0
  88 0004 8389     		ldrh	r3, [r0, #12]
  89 0006 0D2B     		cmp	r3, #13
  90 0008 1FD1     		bne	.L10
 229:Generated_Source\PSoC4/BLE_1_gatt.c ****     {
 230:Generated_Source\PSoC4/BLE_1_gatt.c ****         /* Store value to database */
 231:Generated_Source\PSoC4/BLE_1_gatt.c ****         gattErr = CyBle_GattsWriteAttributeValue(&eventParam->handleValPair, 0u, 
  91              		.loc 1 231 0
  92 000a 0430     		adds	r0, r0, #4
  93              	.LVL5:
  94 000c 3333     		adds	r3, r3, #51
  95 000e 2A00     		movs	r2, r5
  96 0010 0021     		movs	r1, #0
  97 0012 FFF7FEFF 		bl	CyBle_GattsWriteAttributeValue
  98              	.LVL6:
  99 0016 041E     		subs	r4, r0, #0
 100              	.LVL7:
 232:Generated_Source\PSoC4/BLE_1_gatt.c ****                         &eventParam->connHandle, CYBLE_GATT_DB_PEER_INITIATED);
 233:Generated_Source\PSoC4/BLE_1_gatt.c ****         
 234:Generated_Source\PSoC4/BLE_1_gatt.c ****         if(gattErr == CYBLE_GATT_ERR_NONE)
 101              		.loc 1 234 0
 102 0018 11D1     		bne	.L8
 235:Generated_Source\PSoC4/BLE_1_gatt.c ****         {
 236:Generated_Source\PSoC4/BLE_1_gatt.c ****             if(CYBLE_IS_INDICATION_ENABLED_IN_PTR(eventParam->handleValPair.value.val))
 103              		.loc 1 236 0
 104 001a 6868     		ldr	r0, [r5, #4]
 105              	.LVL8:
 106 001c FFF7FEFF 		bl	CyBle_Get16ByPtr
ARM GAS  C:\Users\jon\AppData\Local\Temp\ccHZWauF.s 			page 7


 107              	.LVL9:
 108 0020 8307     		lsls	r3, r0, #30
 109 0022 06D5     		bpl	.L9
 237:Generated_Source\PSoC4/BLE_1_gatt.c ****             {
 238:Generated_Source\PSoC4/BLE_1_gatt.c ****                 CyBle_ApplCallback((uint32)CYBLE_EVT_GATTS_INDICATION_ENABLED, eventParam);
 110              		.loc 1 238 0
 111 0024 0A4B     		ldr	r3, .L11
 112 0026 1B68     		ldr	r3, [r3]
 113 0028 2900     		movs	r1, r5
 114 002a 8220     		movs	r0, #130
 115 002c 4000     		lsls	r0, r0, #1
 116 002e 9847     		blx	r3
 117              	.LVL10:
 118 0030 05E0     		b	.L8
 119              	.L9:
 239:Generated_Source\PSoC4/BLE_1_gatt.c ****             }
 240:Generated_Source\PSoC4/BLE_1_gatt.c ****             else
 241:Generated_Source\PSoC4/BLE_1_gatt.c ****             {
 242:Generated_Source\PSoC4/BLE_1_gatt.c ****                 CyBle_ApplCallback((uint32)CYBLE_EVT_GATTS_INDICATION_DISABLED, eventParam);
 120              		.loc 1 242 0
 121 0032 074B     		ldr	r3, .L11
 122 0034 1B68     		ldr	r3, [r3]
 123 0036 2900     		movs	r1, r5
 124 0038 0620     		movs	r0, #6
 125 003a FF30     		adds	r0, r0, #255
 126 003c 9847     		blx	r3
 127              	.LVL11:
 128              	.L8:
 243:Generated_Source\PSoC4/BLE_1_gatt.c ****             }
 244:Generated_Source\PSoC4/BLE_1_gatt.c ****         }
 245:Generated_Source\PSoC4/BLE_1_gatt.c ****         cyBle_eventHandlerFlag &= (uint8)~CYBLE_CALLBACK;
 129              		.loc 1 245 0
 130 003e 054A     		ldr	r2, .L11+4
 131 0040 1378     		ldrb	r3, [r2]
 132 0042 0121     		movs	r1, #1
 133 0044 8B43     		bics	r3, r1
 134 0046 1370     		strb	r3, [r2]
 135 0048 00E0     		b	.L7
 136              	.LVL12:
 137              	.L10:
 225:Generated_Source\PSoC4/BLE_1_gatt.c ****     
 138              		.loc 1 225 0
 139 004a 0024     		movs	r4, #0
 140              	.LVL13:
 141              	.L7:
 246:Generated_Source\PSoC4/BLE_1_gatt.c ****     }
 247:Generated_Source\PSoC4/BLE_1_gatt.c ****     return (gattErr);
 248:Generated_Source\PSoC4/BLE_1_gatt.c **** }
 142              		.loc 1 248 0
 143 004c 2000     		movs	r0, r4
 144              		@ sp needed
 145              	.LVL14:
 146              	.LVL15:
 147 004e 70BD     		pop	{r4, r5, r6, pc}
 148              	.L12:
 149              		.align	2
 150              	.L11:
ARM GAS  C:\Users\jon\AppData\Local\Temp\ccHZWauF.s 			page 8


 151 0050 00000000 		.word	CyBle_ApplCallback
 152 0054 00000000 		.word	cyBle_eventHandlerFlag
 153              		.cfi_endproc
 154              	.LFE3:
 155              		.size	CyBle_GattsWriteEventHandler, .-CyBle_GattsWriteEventHandler
 156              		.section	.text.CyBle_GattcStartDiscovery,"ax",%progbits
 157              		.align	2
 158              		.global	CyBle_GattcStartDiscovery
 159              		.code	16
 160              		.thumb_func
 161              		.type	CyBle_GattcStartDiscovery, %function
 162              	CyBle_GattcStartDiscovery:
 163              	.LFB4:
 249:Generated_Source\PSoC4/BLE_1_gatt.c **** 
 250:Generated_Source\PSoC4/BLE_1_gatt.c **** 
 251:Generated_Source\PSoC4/BLE_1_gatt.c **** #endif /* (CYBLE_GATT_ROLE_SERVER) */
 252:Generated_Source\PSoC4/BLE_1_gatt.c **** 
 253:Generated_Source\PSoC4/BLE_1_gatt.c **** #if(CYBLE_GATT_ROLE_CLIENT)
 254:Generated_Source\PSoC4/BLE_1_gatt.c **** 
 255:Generated_Source\PSoC4/BLE_1_gatt.c **** /****************************************************************************** 
 256:Generated_Source\PSoC4/BLE_1_gatt.c **** * Function Name: CyBle_GattcStartDiscovery
 257:Generated_Source\PSoC4/BLE_1_gatt.c **** ***************************************************************************//**
 258:Generated_Source\PSoC4/BLE_1_gatt.c **** * 
 259:Generated_Source\PSoC4/BLE_1_gatt.c **** *  Starts the automatic server discovery process. 
 260:Generated_Source\PSoC4/BLE_1_gatt.c **** *   
 261:Generated_Source\PSoC4/BLE_1_gatt.c **** *   Discovery procedure is based on the user configuration. It discovers only services, characteris
 262:Generated_Source\PSoC4/BLE_1_gatt.c **** *   descriptors which were declared in the GATT database.
 263:Generated_Source\PSoC4/BLE_1_gatt.c **** *   Discovery procedure has the following flow:
 264:Generated_Source\PSoC4/BLE_1_gatt.c **** *   - discovering primary services by BLE Stack function CyBle_GattcDiscoverAllPrimaryServices();
 265:Generated_Source\PSoC4/BLE_1_gatt.c **** *   - discovering included services by BLE Stack function CyBle_GattcFindIncludedServices();
 266:Generated_Source\PSoC4/BLE_1_gatt.c **** *   - discovering characteristics for available services by BLE Stack function CyBle_GattcDiscoverA
 267:Generated_Source\PSoC4/BLE_1_gatt.c **** *   - discovering characteristic descriptors by BLE Stack function CyBle_GattcDiscoverAllCharacteri
 268:Generated_Source\PSoC4/BLE_1_gatt.c **** *
 269:Generated_Source\PSoC4/BLE_1_gatt.c **** *   During the discovery procedure the discovery-specific stack events are handled by the component
 270:Generated_Source\PSoC4/BLE_1_gatt.c **** *   and thus aren’t passed to the application callback: CYBLE_EVT_GATTC_READ_BY_GROUP_TYPE_RSP,
 271:Generated_Source\PSoC4/BLE_1_gatt.c **** *   CYBLE_EVT_GATTC_READ_BY_TYPE_RSP, CYBLE_EVT_GATTC_FIND_INFO_RSP, CYBLE_EVT_GATTC_ERROR_RSP.    
 272:Generated_Source\PSoC4/BLE_1_gatt.c **** *   
 273:Generated_Source\PSoC4/BLE_1_gatt.c **** *   After the discovery procedure all information about available services is stored in CYBLE_DISC_
 274:Generated_Source\PSoC4/BLE_1_gatt.c **** *   and discovered attributes handles are stored in service-specific client structures, such as CYB
 275:Generated_Source\PSoC4/BLE_1_gatt.c **** *   Battery Service or CYBLE_HRSC_T for Heart Rate Service.
 276:Generated_Source\PSoC4/BLE_1_gatt.c **** *
 277:Generated_Source\PSoC4/BLE_1_gatt.c **** *  \param connHandle: The handle which consists of the device ID and ATT connection ID.
 278:Generated_Source\PSoC4/BLE_1_gatt.c **** * 
 279:Generated_Source\PSoC4/BLE_1_gatt.c **** *  \return
 280:Generated_Source\PSoC4/BLE_1_gatt.c **** *  CYBLE_API_RESULT_T : Return value indicates if the function succeeded or
 281:Generated_Source\PSoC4/BLE_1_gatt.c **** *                        failed. Following are the possible error codes.
 282:Generated_Source\PSoC4/BLE_1_gatt.c **** *
 283:Generated_Source\PSoC4/BLE_1_gatt.c **** *   <table>	
 284:Generated_Source\PSoC4/BLE_1_gatt.c **** *   <tr>
 285:Generated_Source\PSoC4/BLE_1_gatt.c **** *	  <th>Errors codes</th>
 286:Generated_Source\PSoC4/BLE_1_gatt.c **** *	  <th>Description</th>
 287:Generated_Source\PSoC4/BLE_1_gatt.c **** *	</tr>
 288:Generated_Source\PSoC4/BLE_1_gatt.c **** *	<tr>
 289:Generated_Source\PSoC4/BLE_1_gatt.c **** *	  <td>CYBLE_ERROR_OK</td>
 290:Generated_Source\PSoC4/BLE_1_gatt.c **** *	  <td>On successful operation</td>
 291:Generated_Source\PSoC4/BLE_1_gatt.c **** *	</tr>
 292:Generated_Source\PSoC4/BLE_1_gatt.c **** *	<tr>
ARM GAS  C:\Users\jon\AppData\Local\Temp\ccHZWauF.s 			page 9


 293:Generated_Source\PSoC4/BLE_1_gatt.c **** *	  <td>CYBLE_ERROR_INVALID_PARAMETER</td>
 294:Generated_Source\PSoC4/BLE_1_gatt.c **** *	  <td>'connHandle' value does not represent any existing entry.</td>
 295:Generated_Source\PSoC4/BLE_1_gatt.c **** *	</tr>
 296:Generated_Source\PSoC4/BLE_1_gatt.c **** *	<tr>
 297:Generated_Source\PSoC4/BLE_1_gatt.c **** *	  <td>CYBLE_ERROR_INVALID_OPERATION</td>
 298:Generated_Source\PSoC4/BLE_1_gatt.c **** *	  <td>The operation is not permitted</td>
 299:Generated_Source\PSoC4/BLE_1_gatt.c **** *	</tr>
 300:Generated_Source\PSoC4/BLE_1_gatt.c **** *   <tr>
 301:Generated_Source\PSoC4/BLE_1_gatt.c **** *	  <td>CYBLE_ERROR_MEMORY_ALLOCATION_FAILED</td>
 302:Generated_Source\PSoC4/BLE_1_gatt.c **** *	  <td>Memory allocation failed</td>
 303:Generated_Source\PSoC4/BLE_1_gatt.c **** *	</tr>
 304:Generated_Source\PSoC4/BLE_1_gatt.c **** *   <tr>
 305:Generated_Source\PSoC4/BLE_1_gatt.c **** *	  <td>CYBLE_ERROR_INVALID_STATE</td>
 306:Generated_Source\PSoC4/BLE_1_gatt.c **** *	  <td>If the function is called in any state except connected or discovered</td>
 307:Generated_Source\PSoC4/BLE_1_gatt.c **** *	</tr>
 308:Generated_Source\PSoC4/BLE_1_gatt.c **** *   </table>
 309:Generated_Source\PSoC4/BLE_1_gatt.c **** *
 310:Generated_Source\PSoC4/BLE_1_gatt.c **** *  \events
 311:Generated_Source\PSoC4/BLE_1_gatt.c **** *   The following events may be generated after calling this function:
 312:Generated_Source\PSoC4/BLE_1_gatt.c **** *   * CYBLE_EVT_GATTC_DISCOVERY_COMPLETE  - event is generated when the remote device was successfu
 313:Generated_Source\PSoC4/BLE_1_gatt.c **** *   * CYBLE_EVT_GATTC_ERROR_RSP  		- is generated if the device discovery has failed.
 314:Generated_Source\PSoC4/BLE_1_gatt.c **** *   * CYBLE_EVT_GATTC_SRVC_DUPLICATION 	- is generated if duplicate service record was found during
 315:Generated_Source\PSoC4/BLE_1_gatt.c **** *        								  discovery.
 316:Generated_Source\PSoC4/BLE_1_gatt.c **** *   * CYBLE_EVT_GATTC_CHAR_DUPLICATION 	- is generated if duplicate service's characteristic descri
 317:Generated_Source\PSoC4/BLE_1_gatt.c **** *        								  during the server device discovery.
 318:Generated_Source\PSoC4/BLE_1_gatt.c **** *   * CYBLE_EVT_GATTC_DESCR_DUPLICATION - is generated if duplicate service's characteristic descri
 319:Generated_Source\PSoC4/BLE_1_gatt.c **** *        								  during the server device discovery.
 320:Generated_Source\PSoC4/BLE_1_gatt.c **** *  
 321:Generated_Source\PSoC4/BLE_1_gatt.c **** ******************************************************************************/
 322:Generated_Source\PSoC4/BLE_1_gatt.c **** CYBLE_API_RESULT_T CyBle_GattcStartDiscovery(CYBLE_CONN_HANDLE_T connHandle)
 323:Generated_Source\PSoC4/BLE_1_gatt.c **** {
 164              		.loc 1 323 0
 165              		.cfi_startproc
 166              		@ args = 0, pretend = 0, frame = 8
 167              		@ frame_needed = 0, uses_anonymous_args = 0
 168 0000 10B5     		push	{r4, lr}
 169              		.cfi_def_cfa_offset 8
 170              		.cfi_offset 4, -8
 171              		.cfi_offset 14, -4
 172 0002 82B0     		sub	sp, sp, #8
 173              		.cfi_def_cfa_offset 16
 174 0004 01AB     		add	r3, sp, #4
 175 0006 1880     		strh	r0, [r3]
 324:Generated_Source\PSoC4/BLE_1_gatt.c ****     uint8 j;
 325:Generated_Source\PSoC4/BLE_1_gatt.c ****     CYBLE_API_RESULT_T apiResult;
 326:Generated_Source\PSoC4/BLE_1_gatt.c ****     
 327:Generated_Source\PSoC4/BLE_1_gatt.c ****     if((CyBle_GetState() != CYBLE_STATE_CONNECTED) || 
 176              		.loc 1 327 0
 177 0008 1E4B     		ldr	r3, .L20
 178 000a 1B78     		ldrb	r3, [r3]
 179 000c 022B     		cmp	r3, #2
 180 000e 31D1     		bne	.L17
 328:Generated_Source\PSoC4/BLE_1_gatt.c ****        ((CyBle_GetClientState() != CYBLE_CLIENT_STATE_CONNECTED) && 
 181              		.loc 1 328 0 discriminator 1
 182 0010 1D4B     		ldr	r3, .L20+4
 183 0012 1B78     		ldrb	r3, [r3]
 327:Generated_Source\PSoC4/BLE_1_gatt.c ****        ((CyBle_GetClientState() != CYBLE_CLIENT_STATE_CONNECTED) && 
ARM GAS  C:\Users\jon\AppData\Local\Temp\ccHZWauF.s 			page 10


 184              		.loc 1 327 0 discriminator 1
 185 0014 002B     		cmp	r3, #0
 186 0016 0FD0     		beq	.L18
 187              		.loc 1 328 0
 188 0018 052B     		cmp	r3, #5
 189 001a 2ED1     		bne	.L19
 190 001c 0024     		movs	r4, #0
 191 001e 0CE0     		b	.L15
 192              	.LVL16:
 193              	.L16:
 329:Generated_Source\PSoC4/BLE_1_gatt.c ****         (CyBle_GetClientState() != CYBLE_CLIENT_STATE_DISCOVERED))) 
 330:Generated_Source\PSoC4/BLE_1_gatt.c ****     {
 331:Generated_Source\PSoC4/BLE_1_gatt.c ****         apiResult = CYBLE_ERROR_INVALID_STATE;
 332:Generated_Source\PSoC4/BLE_1_gatt.c ****     }
 333:Generated_Source\PSoC4/BLE_1_gatt.c ****     else
 334:Generated_Source\PSoC4/BLE_1_gatt.c ****     {
 335:Generated_Source\PSoC4/BLE_1_gatt.c ****         /* Clean old discovery information */
 336:Generated_Source\PSoC4/BLE_1_gatt.c ****         for(j = 0u; j < (uint8) CYBLE_SRVI_COUNT; j++)
 337:Generated_Source\PSoC4/BLE_1_gatt.c ****         {
 338:Generated_Source\PSoC4/BLE_1_gatt.c ****             (void)memset(&cyBle_serverInfo[j].range, 0, sizeof(cyBle_serverInfo[0].range));
 194              		.loc 1 338 0 discriminator 3
 195 0020 6300     		lsls	r3, r4, #1
 196 0022 1B19     		adds	r3, r3, r4
 197 0024 5800     		lsls	r0, r3, #1
 198 0026 194B     		ldr	r3, .L20+8
 199 0028 C018     		adds	r0, r0, r3
 200 002a 0422     		movs	r2, #4
 201 002c 0021     		movs	r1, #0
 202 002e FFF7FEFF 		bl	memset
 203              	.LVL17:
 336:Generated_Source\PSoC4/BLE_1_gatt.c ****         {
 204              		.loc 1 336 0 discriminator 3
 205 0032 0134     		adds	r4, r4, #1
 206              	.LVL18:
 207 0034 E4B2     		uxtb	r4, r4
 208              	.LVL19:
 209 0036 00E0     		b	.L15
 210              	.LVL20:
 211              	.L18:
 212 0038 0024     		movs	r4, #0
 213              	.L15:
 214              	.LVL21:
 336:Generated_Source\PSoC4/BLE_1_gatt.c ****         {
 215              		.loc 1 336 0 is_stmt 0 discriminator 1
 216 003a 022C     		cmp	r4, #2
 217 003c F0D9     		bls	.L16
 339:Generated_Source\PSoC4/BLE_1_gatt.c ****         }
 340:Generated_Source\PSoC4/BLE_1_gatt.c **** 
 341:Generated_Source\PSoC4/BLE_1_gatt.c ****         cyBle_connHandle = connHandle;
 218              		.loc 1 341 0 is_stmt 1
 219 003e 0222     		movs	r2, #2
 220 0040 01A9     		add	r1, sp, #4
 221 0042 1348     		ldr	r0, .L20+12
 222 0044 FFF7FEFF 		bl	memcpy
 223              	.LVL22:
 342:Generated_Source\PSoC4/BLE_1_gatt.c ****         cyBle_gattcDiscoveryRange.startHandle = CYBLE_GATT_ATTR_HANDLE_START_RANGE;
 224              		.loc 1 342 0
ARM GAS  C:\Users\jon\AppData\Local\Temp\ccHZWauF.s 			page 11


 225 0048 124B     		ldr	r3, .L20+16
 226 004a 0122     		movs	r2, #1
 227 004c 1A80     		strh	r2, [r3]
 343:Generated_Source\PSoC4/BLE_1_gatt.c ****         cyBle_gattcDiscoveryRange.endHandle = CYBLE_GATT_ATTR_HANDLE_END_RANGE;
 228              		.loc 1 343 0
 229 004e 023A     		subs	r2, r2, #2
 230 0050 5A80     		strh	r2, [r3, #2]
 344:Generated_Source\PSoC4/BLE_1_gatt.c ****         
 345:Generated_Source\PSoC4/BLE_1_gatt.c ****         CyBle_ServiceInit();
 231              		.loc 1 345 0
 232 0052 FFF7FEFF 		bl	CyBle_ServiceInit
 233              	.LVL23:
 346:Generated_Source\PSoC4/BLE_1_gatt.c ****         
 347:Generated_Source\PSoC4/BLE_1_gatt.c ****         apiResult = CyBle_GattcDiscoverAllPrimaryServices(connHandle);
 234              		.loc 1 347 0
 235 0056 0198     		ldr	r0, [sp, #4]
 236 0058 FFF7FEFF 		bl	CyBle_GattcDiscoverAllPrimaryServices
 237              	.LVL24:
 348:Generated_Source\PSoC4/BLE_1_gatt.c **** 
 349:Generated_Source\PSoC4/BLE_1_gatt.c ****         if(apiResult == CYBLE_ERROR_OK)
 238              		.loc 1 349 0
 239 005c 0028     		cmp	r0, #0
 240 005e 0ED1     		bne	.L14
 350:Generated_Source\PSoC4/BLE_1_gatt.c ****         {
 351:Generated_Source\PSoC4/BLE_1_gatt.c ****             CyBle_SetClientState(CYBLE_CLIENT_STATE_SRVC_DISCOVERING);
 241              		.loc 1 351 0
 242 0060 0122     		movs	r2, #1
 243 0062 094B     		ldr	r3, .L20+4
 244 0064 1A70     		strb	r2, [r3]
 352:Generated_Source\PSoC4/BLE_1_gatt.c ****             cyBle_eventHandlerFlag |= CYBLE_AUTO_DISCOVERY;
 245              		.loc 1 352 0
 246 0066 0C4A     		ldr	r2, .L20+20
 247 0068 1178     		ldrb	r1, [r2]
 248 006a 0223     		movs	r3, #2
 249 006c 0B43     		orrs	r3, r1
 250 006e DBB2     		uxtb	r3, r3
 251 0070 1370     		strb	r3, [r2]
 252 0072 04E0     		b	.L14
 253              	.LVL25:
 254              	.L17:
 331:Generated_Source\PSoC4/BLE_1_gatt.c ****     }
 255              		.loc 1 331 0
 256 0074 0420     		movs	r0, #4
 257 0076 FF30     		adds	r0, r0, #255
 258 0078 01E0     		b	.L14
 259              	.L19:
 260 007a 0420     		movs	r0, #4
 261 007c FF30     		adds	r0, r0, #255
 262              	.L14:
 263              	.LVL26:
 353:Generated_Source\PSoC4/BLE_1_gatt.c ****         }
 354:Generated_Source\PSoC4/BLE_1_gatt.c ****     }
 355:Generated_Source\PSoC4/BLE_1_gatt.c ****     
 356:Generated_Source\PSoC4/BLE_1_gatt.c ****     return (apiResult);
 357:Generated_Source\PSoC4/BLE_1_gatt.c **** }
 264              		.loc 1 357 0
 265 007e 02B0     		add	sp, sp, #8
ARM GAS  C:\Users\jon\AppData\Local\Temp\ccHZWauF.s 			page 12


 266              		@ sp needed
 267 0080 10BD     		pop	{r4, pc}
 268              	.L21:
 269 0082 C046     		.align	2
 270              	.L20:
 271 0084 00000000 		.word	cyBle_state
 272 0088 00000000 		.word	cyBle_clientState
 273 008c 00000000 		.word	cyBle_serverInfo
 274 0090 00000000 		.word	cyBle_connHandle
 275 0094 00000000 		.word	cyBle_gattcDiscoveryRange
 276 0098 00000000 		.word	cyBle_eventHandlerFlag
 277              		.cfi_endproc
 278              	.LFE4:
 279              		.size	CyBle_GattcStartDiscovery, .-CyBle_GattcStartDiscovery
 280              		.section	.text.CyBle_GattcStartPartialDiscovery,"ax",%progbits
 281              		.align	2
 282              		.global	CyBle_GattcStartPartialDiscovery
 283              		.code	16
 284              		.thumb_func
 285              		.type	CyBle_GattcStartPartialDiscovery, %function
 286              	CyBle_GattcStartPartialDiscovery:
 287              	.LFB5:
 358:Generated_Source\PSoC4/BLE_1_gatt.c **** 
 359:Generated_Source\PSoC4/BLE_1_gatt.c **** 
 360:Generated_Source\PSoC4/BLE_1_gatt.c **** /****************************************************************************** 
 361:Generated_Source\PSoC4/BLE_1_gatt.c **** * Function Name: CyBle_GattcStartPartialDiscovery
 362:Generated_Source\PSoC4/BLE_1_gatt.c **** ***************************************************************************//**
 363:Generated_Source\PSoC4/BLE_1_gatt.c **** * 
 364:Generated_Source\PSoC4/BLE_1_gatt.c **** *  Starts the automatic server discovery process as per the range provided
 365:Generated_Source\PSoC4/BLE_1_gatt.c **** *  on a GATT Server to which it is connected. This function could be used for 
 366:Generated_Source\PSoC4/BLE_1_gatt.c **** *  partial server discovery after indication received to the Service Changed
 367:Generated_Source\PSoC4/BLE_1_gatt.c **** *  Characteristic Value. 
 368:Generated_Source\PSoC4/BLE_1_gatt.c **** * 
 369:Generated_Source\PSoC4/BLE_1_gatt.c **** *  \param connHandle: The handle which consists of the device ID and ATT connection ID.
 370:Generated_Source\PSoC4/BLE_1_gatt.c **** *  \param startHandle: Start of affected attribute handle range.
 371:Generated_Source\PSoC4/BLE_1_gatt.c **** *  \param endHandle: End of affected attribute handle range.
 372:Generated_Source\PSoC4/BLE_1_gatt.c **** * 
 373:Generated_Source\PSoC4/BLE_1_gatt.c **** *  \return
 374:Generated_Source\PSoC4/BLE_1_gatt.c **** *	CYBLE_API_RESULT_T : Return value indicates if the function succeeded or
 375:Generated_Source\PSoC4/BLE_1_gatt.c **** *                        failed. Following are the possible error codes.
 376:Generated_Source\PSoC4/BLE_1_gatt.c **** *
 377:Generated_Source\PSoC4/BLE_1_gatt.c **** *   <table>	
 378:Generated_Source\PSoC4/BLE_1_gatt.c **** *   <tr>
 379:Generated_Source\PSoC4/BLE_1_gatt.c **** *	  <th>Errors codes</th>
 380:Generated_Source\PSoC4/BLE_1_gatt.c **** *	  <th>Description</th>
 381:Generated_Source\PSoC4/BLE_1_gatt.c **** *	</tr>
 382:Generated_Source\PSoC4/BLE_1_gatt.c **** *	<tr>
 383:Generated_Source\PSoC4/BLE_1_gatt.c **** *	  <td>CYBLE_ERROR_OK</td>
 384:Generated_Source\PSoC4/BLE_1_gatt.c **** *	  <td>On successful operation</td>
 385:Generated_Source\PSoC4/BLE_1_gatt.c **** *	</tr>
 386:Generated_Source\PSoC4/BLE_1_gatt.c **** *	<tr>
 387:Generated_Source\PSoC4/BLE_1_gatt.c **** *	  <td>CYBLE_ERROR_INVALID_PARAMETER</td>
 388:Generated_Source\PSoC4/BLE_1_gatt.c **** *	  <td>'connHandle' value does not represent any existing entry.</td>
 389:Generated_Source\PSoC4/BLE_1_gatt.c **** *	</tr>
 390:Generated_Source\PSoC4/BLE_1_gatt.c **** *	<tr>
 391:Generated_Source\PSoC4/BLE_1_gatt.c **** *	  <td>CYBLE_ERROR_INVALID_OPERATION</td>
 392:Generated_Source\PSoC4/BLE_1_gatt.c **** *	  <td>The operation is not permitted</td>
ARM GAS  C:\Users\jon\AppData\Local\Temp\ccHZWauF.s 			page 13


 393:Generated_Source\PSoC4/BLE_1_gatt.c **** *	</tr>
 394:Generated_Source\PSoC4/BLE_1_gatt.c **** *   <tr>
 395:Generated_Source\PSoC4/BLE_1_gatt.c **** *	  <td>CYBLE_ERROR_MEMORY_ALLOCATION_FAILED</td>
 396:Generated_Source\PSoC4/BLE_1_gatt.c **** *	  <td>Memory allocation failed</td>
 397:Generated_Source\PSoC4/BLE_1_gatt.c **** *	</tr>
 398:Generated_Source\PSoC4/BLE_1_gatt.c **** *   <tr>
 399:Generated_Source\PSoC4/BLE_1_gatt.c **** *	  <td>CYBLE_ERROR_INVALID_STATE</td>
 400:Generated_Source\PSoC4/BLE_1_gatt.c **** *	  <td>If the function is called in any state except connected or discovered</td>
 401:Generated_Source\PSoC4/BLE_1_gatt.c **** *	</tr>
 402:Generated_Source\PSoC4/BLE_1_gatt.c **** *   </table>
 403:Generated_Source\PSoC4/BLE_1_gatt.c **** * 
 404:Generated_Source\PSoC4/BLE_1_gatt.c **** *  \events
 405:Generated_Source\PSoC4/BLE_1_gatt.c **** *  Two events may be generated after calling this function:
 406:Generated_Source\PSoC4/BLE_1_gatt.c **** *  CYBLE_EVT_GATTC_DISCOVERY_COMPLETE or CYBLE_EVT_GATTC_ERROR_RSP.
 407:Generated_Source\PSoC4/BLE_1_gatt.c **** *  The CYBLE_EVT_GATTC_DISCOVERY_COMPLETE event is 
 408:Generated_Source\PSoC4/BLE_1_gatt.c **** *  generated when the remote device was successfully discovered. The
 409:Generated_Source\PSoC4/BLE_1_gatt.c **** *  CYBLE_EVT_GATTC_ERROR_RSP is generated if the device discovery is failed.
 410:Generated_Source\PSoC4/BLE_1_gatt.c **** *
 411:Generated_Source\PSoC4/BLE_1_gatt.c **** ******************************************************************************/
 412:Generated_Source\PSoC4/BLE_1_gatt.c **** CYBLE_API_RESULT_T CyBle_GattcStartPartialDiscovery(CYBLE_CONN_HANDLE_T connHandle,
 413:Generated_Source\PSoC4/BLE_1_gatt.c ****                         CYBLE_GATT_DB_ATTR_HANDLE_T startHandle, CYBLE_GATT_DB_ATTR_HANDLE_T endHan
 414:Generated_Source\PSoC4/BLE_1_gatt.c **** {
 288              		.loc 1 414 0
 289              		.cfi_startproc
 290              		@ args = 0, pretend = 0, frame = 8
 291              		@ frame_needed = 0, uses_anonymous_args = 0
 292              	.LVL27:
 293 0000 70B5     		push	{r4, r5, r6, lr}
 294              		.cfi_def_cfa_offset 16
 295              		.cfi_offset 4, -16
 296              		.cfi_offset 5, -12
 297              		.cfi_offset 6, -8
 298              		.cfi_offset 14, -4
 299 0002 82B0     		sub	sp, sp, #8
 300              		.cfi_def_cfa_offset 24
 301 0004 01AB     		add	r3, sp, #4
 302 0006 1880     		strh	r0, [r3]
 303 0008 0D00     		movs	r5, r1
 304 000a 1600     		movs	r6, r2
 415:Generated_Source\PSoC4/BLE_1_gatt.c ****     uint8 j;
 416:Generated_Source\PSoC4/BLE_1_gatt.c ****     CYBLE_API_RESULT_T apiResult;
 417:Generated_Source\PSoC4/BLE_1_gatt.c ****     
 418:Generated_Source\PSoC4/BLE_1_gatt.c ****     if((CyBle_GetState() != CYBLE_STATE_CONNECTED) || 
 305              		.loc 1 418 0
 306 000c 204B     		ldr	r3, .L30
 307 000e 1B78     		ldrb	r3, [r3]
 308 0010 022B     		cmp	r3, #2
 309 0012 36D1     		bne	.L27
 419:Generated_Source\PSoC4/BLE_1_gatt.c ****        ((CyBle_GetClientState() != CYBLE_CLIENT_STATE_CONNECTED) && 
 310              		.loc 1 419 0 discriminator 1
 311 0014 1F4B     		ldr	r3, .L30+4
 312 0016 1B78     		ldrb	r3, [r3]
 418:Generated_Source\PSoC4/BLE_1_gatt.c ****        ((CyBle_GetClientState() != CYBLE_CLIENT_STATE_CONNECTED) && 
 313              		.loc 1 418 0 discriminator 1
 314 0018 002B     		cmp	r3, #0
 315 001a 15D0     		beq	.L28
 316              		.loc 1 419 0
ARM GAS  C:\Users\jon\AppData\Local\Temp\ccHZWauF.s 			page 14


 317 001c 052B     		cmp	r3, #5
 318 001e 33D1     		bne	.L29
 319 0020 0024     		movs	r4, #0
 320 0022 12E0     		b	.L24
 321              	.LVL28:
 322              	.L26:
 420:Generated_Source\PSoC4/BLE_1_gatt.c ****         (CyBle_GetClientState() != CYBLE_CLIENT_STATE_DISCOVERED))) 
 421:Generated_Source\PSoC4/BLE_1_gatt.c ****     {
 422:Generated_Source\PSoC4/BLE_1_gatt.c ****         apiResult = CYBLE_ERROR_INVALID_STATE;
 423:Generated_Source\PSoC4/BLE_1_gatt.c ****     }
 424:Generated_Source\PSoC4/BLE_1_gatt.c ****     else
 425:Generated_Source\PSoC4/BLE_1_gatt.c ****     {
 426:Generated_Source\PSoC4/BLE_1_gatt.c ****         /* Clean old discovery information of affected attribute range */
 427:Generated_Source\PSoC4/BLE_1_gatt.c ****         for(j = 0u; j < (uint8) CYBLE_SRVI_COUNT; j++)
 428:Generated_Source\PSoC4/BLE_1_gatt.c ****         {
 429:Generated_Source\PSoC4/BLE_1_gatt.c ****             if((cyBle_serverInfo[j].range.startHandle >= startHandle) &&
 323              		.loc 1 429 0
 324 0024 6300     		lsls	r3, r4, #1
 325 0026 1B19     		adds	r3, r3, r4
 326 0028 5A00     		lsls	r2, r3, #1
 327 002a 1B4B     		ldr	r3, .L30+8
 328 002c D35A     		ldrh	r3, [r2, r3]
 329 002e AB42     		cmp	r3, r5
 330 0030 07D3     		bcc	.L25
 331              		.loc 1 429 0 is_stmt 0 discriminator 1
 332 0032 B342     		cmp	r3, r6
 333 0034 05D8     		bhi	.L25
 430:Generated_Source\PSoC4/BLE_1_gatt.c ****                (cyBle_serverInfo[j].range.startHandle <= endHandle))
 431:Generated_Source\PSoC4/BLE_1_gatt.c ****             {
 432:Generated_Source\PSoC4/BLE_1_gatt.c ****                 (void)memset(&cyBle_serverInfo[j].range, 0, sizeof(cyBle_serverInfo[0].range));
 334              		.loc 1 432 0 is_stmt 1
 335 0036 184B     		ldr	r3, .L30+8
 336 0038 D018     		adds	r0, r2, r3
 337 003a 0422     		movs	r2, #4
 338 003c 0021     		movs	r1, #0
 339 003e FFF7FEFF 		bl	memset
 340              	.LVL29:
 341              	.L25:
 427:Generated_Source\PSoC4/BLE_1_gatt.c ****         {
 342              		.loc 1 427 0 discriminator 2
 343 0042 0134     		adds	r4, r4, #1
 344              	.LVL30:
 345 0044 E4B2     		uxtb	r4, r4
 346              	.LVL31:
 347 0046 00E0     		b	.L24
 348              	.LVL32:
 349              	.L28:
 350 0048 0024     		movs	r4, #0
 351              	.LVL33:
 352              	.L24:
 427:Generated_Source\PSoC4/BLE_1_gatt.c ****         {
 353              		.loc 1 427 0 is_stmt 0 discriminator 1
 354 004a 022C     		cmp	r4, #2
 355 004c EAD9     		bls	.L26
 433:Generated_Source\PSoC4/BLE_1_gatt.c ****             }
 434:Generated_Source\PSoC4/BLE_1_gatt.c ****         }
 435:Generated_Source\PSoC4/BLE_1_gatt.c **** 
ARM GAS  C:\Users\jon\AppData\Local\Temp\ccHZWauF.s 			page 15


 436:Generated_Source\PSoC4/BLE_1_gatt.c ****         cyBle_connHandle = connHandle;
 356              		.loc 1 436 0 is_stmt 1
 357 004e 0222     		movs	r2, #2
 358 0050 01A9     		add	r1, sp, #4
 359 0052 1248     		ldr	r0, .L30+12
 360 0054 FFF7FEFF 		bl	memcpy
 361              	.LVL34:
 437:Generated_Source\PSoC4/BLE_1_gatt.c ****         cyBle_gattcDiscoveryRange.startHandle = startHandle;
 362              		.loc 1 437 0
 363 0058 114C     		ldr	r4, .L30+16
 364              	.LVL35:
 365 005a 2580     		strh	r5, [r4]
 438:Generated_Source\PSoC4/BLE_1_gatt.c ****         cyBle_gattcDiscoveryRange.endHandle = endHandle;
 366              		.loc 1 438 0
 367 005c 6680     		strh	r6, [r4, #2]
 439:Generated_Source\PSoC4/BLE_1_gatt.c **** 
 440:Generated_Source\PSoC4/BLE_1_gatt.c ****         CyBle_ServiceInit();
 368              		.loc 1 440 0
 369 005e FFF7FEFF 		bl	CyBle_ServiceInit
 370              	.LVL36:
 441:Generated_Source\PSoC4/BLE_1_gatt.c **** 
 442:Generated_Source\PSoC4/BLE_1_gatt.c ****         apiResult = CyBle_GattcDiscoverPrimaryServices(connHandle, &cyBle_gattcDiscoveryRange);
 371              		.loc 1 442 0
 372 0062 2100     		movs	r1, r4
 373 0064 0198     		ldr	r0, [sp, #4]
 374 0066 FFF7FEFF 		bl	CyBle_GattcDiscoverPrimaryServices
 375              	.LVL37:
 443:Generated_Source\PSoC4/BLE_1_gatt.c **** 
 444:Generated_Source\PSoC4/BLE_1_gatt.c ****         if(apiResult == CYBLE_ERROR_OK)
 376              		.loc 1 444 0
 377 006a 0028     		cmp	r0, #0
 378 006c 0ED1     		bne	.L23
 445:Generated_Source\PSoC4/BLE_1_gatt.c ****         {
 446:Generated_Source\PSoC4/BLE_1_gatt.c ****             CyBle_SetClientState(CYBLE_CLIENT_STATE_SRVC_DISCOVERING);
 379              		.loc 1 446 0
 380 006e 0122     		movs	r2, #1
 381 0070 084B     		ldr	r3, .L30+4
 382 0072 1A70     		strb	r2, [r3]
 447:Generated_Source\PSoC4/BLE_1_gatt.c ****             cyBle_eventHandlerFlag |= CYBLE_AUTO_DISCOVERY;
 383              		.loc 1 447 0
 384 0074 0B4A     		ldr	r2, .L30+20
 385 0076 1178     		ldrb	r1, [r2]
 386 0078 0223     		movs	r3, #2
 387 007a 0B43     		orrs	r3, r1
 388 007c DBB2     		uxtb	r3, r3
 389 007e 1370     		strb	r3, [r2]
 390 0080 04E0     		b	.L23
 391              	.LVL38:
 392              	.L27:
 422:Generated_Source\PSoC4/BLE_1_gatt.c ****     }
 393              		.loc 1 422 0
 394 0082 0420     		movs	r0, #4
 395 0084 FF30     		adds	r0, r0, #255
 396 0086 01E0     		b	.L23
 397              	.L29:
 398 0088 0420     		movs	r0, #4
 399 008a FF30     		adds	r0, r0, #255
ARM GAS  C:\Users\jon\AppData\Local\Temp\ccHZWauF.s 			page 16


 400              	.LVL39:
 401              	.L23:
 448:Generated_Source\PSoC4/BLE_1_gatt.c ****         }
 449:Generated_Source\PSoC4/BLE_1_gatt.c ****     }
 450:Generated_Source\PSoC4/BLE_1_gatt.c ****     
 451:Generated_Source\PSoC4/BLE_1_gatt.c ****     return (apiResult);
 452:Generated_Source\PSoC4/BLE_1_gatt.c **** }
 402              		.loc 1 452 0
 403 008c 02B0     		add	sp, sp, #8
 404              		@ sp needed
 405 008e 70BD     		pop	{r4, r5, r6, pc}
 406              	.L31:
 407              		.align	2
 408              	.L30:
 409 0090 00000000 		.word	cyBle_state
 410 0094 00000000 		.word	cyBle_clientState
 411 0098 00000000 		.word	cyBle_serverInfo
 412 009c 00000000 		.word	cyBle_connHandle
 413 00a0 00000000 		.word	cyBle_gattcDiscoveryRange
 414 00a4 00000000 		.word	cyBle_eventHandlerFlag
 415              		.cfi_endproc
 416              	.LFE5:
 417              		.size	CyBle_GattcStartPartialDiscovery, .-CyBle_GattcStartPartialDiscovery
 418              		.section	.text.CyBle_GattcDiscoverCharacteristicsEventHandler,"ax",%progbits
 419              		.align	2
 420              		.global	CyBle_GattcDiscoverCharacteristicsEventHandler
 421              		.code	16
 422              		.thumb_func
 423              		.type	CyBle_GattcDiscoverCharacteristicsEventHandler, %function
 424              	CyBle_GattcDiscoverCharacteristicsEventHandler:
 425              	.LFB6:
 453:Generated_Source\PSoC4/BLE_1_gatt.c **** 
 454:Generated_Source\PSoC4/BLE_1_gatt.c **** 
 455:Generated_Source\PSoC4/BLE_1_gatt.c **** /******************************************************************************
 456:Generated_Source\PSoC4/BLE_1_gatt.c **** * Function Name: CyBle_GattcDiscoverCharacteristicsEventHandler
 457:Generated_Source\PSoC4/BLE_1_gatt.c **** ***************************************************************************//**
 458:Generated_Source\PSoC4/BLE_1_gatt.c **** * 
 459:Generated_Source\PSoC4/BLE_1_gatt.c **** *  This function is called on receiving a CYBLE_EVT_GATTC_READ_BY_TYPE_RSP
 460:Generated_Source\PSoC4/BLE_1_gatt.c **** *  event. Based on the service UUID, an appropriate data structure is populated
 461:Generated_Source\PSoC4/BLE_1_gatt.c **** *  using the data received as part of the callback.
 462:Generated_Source\PSoC4/BLE_1_gatt.c **** * 
 463:Generated_Source\PSoC4/BLE_1_gatt.c **** *  \param discCharInfo: The pointer to a characteristic information structure.
 464:Generated_Source\PSoC4/BLE_1_gatt.c **** * 
 465:Generated_Source\PSoC4/BLE_1_gatt.c **** * \return
 466:Generated_Source\PSoC4/BLE_1_gatt.c **** *  None
 467:Generated_Source\PSoC4/BLE_1_gatt.c **** * 
 468:Generated_Source\PSoC4/BLE_1_gatt.c **** ******************************************************************************/
 469:Generated_Source\PSoC4/BLE_1_gatt.c **** void CyBle_GattcDiscoverCharacteristicsEventHandler(CYBLE_DISC_CHAR_INFO_T *discCharInfo)
 470:Generated_Source\PSoC4/BLE_1_gatt.c **** {
 426              		.loc 1 470 0
 427              		.cfi_startproc
 428              		@ args = 0, pretend = 0, frame = 0
 429              		@ frame_needed = 0, uses_anonymous_args = 0
 430              	.LVL40:
 431 0000 10B5     		push	{r4, lr}
 432              		.cfi_def_cfa_offset 8
 433              		.cfi_offset 4, -8
ARM GAS  C:\Users\jon\AppData\Local\Temp\ccHZWauF.s 			page 17


 434              		.cfi_offset 14, -4
 471:Generated_Source\PSoC4/BLE_1_gatt.c ****     if(discCharInfo->uuid.uuid16 == CYBLE_UUID_CHAR_SERVICE_CHANGED)
 435              		.loc 1 471 0
 436 0002 C288     		ldrh	r2, [r0, #6]
 437 0004 094B     		ldr	r3, .L35
 438 0006 9A42     		cmp	r2, r3
 439 0008 0FD1     		bne	.L32
 472:Generated_Source\PSoC4/BLE_1_gatt.c ****     {
 473:Generated_Source\PSoC4/BLE_1_gatt.c ****         CyBle_CheckStoreCharHandle(cyBle_gattc.serviceChanged);
 440              		.loc 1 473 0
 441 000a 094B     		ldr	r3, .L35+4
 442 000c 5B88     		ldrh	r3, [r3, #2]
 443 000e 002B     		cmp	r3, #0
 444 0010 05D1     		bne	.L34
 445              		.loc 1 473 0 is_stmt 0 discriminator 1
 446 0012 8288     		ldrh	r2, [r0, #4]
 447 0014 064B     		ldr	r3, .L35+4
 448 0016 5A80     		strh	r2, [r3, #2]
 449 0018 8278     		ldrb	r2, [r0, #2]
 450 001a 1A70     		strb	r2, [r3]
 451 001c 05E0     		b	.L32
 452              	.L34:
 453              		.loc 1 473 0 discriminator 2
 454 001e 811D     		adds	r1, r0, #6
 455 0020 044B     		ldr	r3, .L35+8
 456 0022 1B68     		ldr	r3, [r3]
 457 0024 8620     		movs	r0, #134
 458              	.LVL41:
 459 0026 4000     		lsls	r0, r0, #1
 460 0028 9847     		blx	r3
 461              	.LVL42:
 462              	.L32:
 474:Generated_Source\PSoC4/BLE_1_gatt.c ****     }
 475:Generated_Source\PSoC4/BLE_1_gatt.c **** }
 463              		.loc 1 475 0 is_stmt 1
 464              		@ sp needed
 465 002a 10BD     		pop	{r4, pc}
 466              	.L36:
 467              		.align	2
 468              	.L35:
 469 002c 052A0000 		.word	10757
 470 0030 00000000 		.word	cyBle_gattc
 471 0034 00000000 		.word	CyBle_ApplCallback
 472              		.cfi_endproc
 473              	.LFE6:
 474              		.size	CyBle_GattcDiscoverCharacteristicsEventHandler, .-CyBle_GattcDiscoverCharacteristicsEventHan
 475              		.section	.text.CyBle_GattcDiscoverCharDescriptorsEventHandler,"ax",%progbits
 476              		.align	2
 477              		.global	CyBle_GattcDiscoverCharDescriptorsEventHandler
 478              		.code	16
 479              		.thumb_func
 480              		.type	CyBle_GattcDiscoverCharDescriptorsEventHandler, %function
 481              	CyBle_GattcDiscoverCharDescriptorsEventHandler:
 482              	.LFB7:
 476:Generated_Source\PSoC4/BLE_1_gatt.c **** 
 477:Generated_Source\PSoC4/BLE_1_gatt.c **** 
 478:Generated_Source\PSoC4/BLE_1_gatt.c **** /******************************************************************************
ARM GAS  C:\Users\jon\AppData\Local\Temp\ccHZWauF.s 			page 18


 479:Generated_Source\PSoC4/BLE_1_gatt.c **** * Function Name: CyBle_GattcDiscoverCharDescriptorsEventHandler
 480:Generated_Source\PSoC4/BLE_1_gatt.c **** ***************************************************************************//**
 481:Generated_Source\PSoC4/BLE_1_gatt.c **** * 
 482:Generated_Source\PSoC4/BLE_1_gatt.c **** *  This function is called on receiving a "CYBLE_EVT_GATTC_FIND_INFO_RSP" event.
 483:Generated_Source\PSoC4/BLE_1_gatt.c **** *  Based on the descriptor UUID, an appropriate data structure is populated 
 484:Generated_Source\PSoC4/BLE_1_gatt.c **** *  using the data received as part of the callback.
 485:Generated_Source\PSoC4/BLE_1_gatt.c **** * 
 486:Generated_Source\PSoC4/BLE_1_gatt.c **** *  \param discDescrInfo: The pointer to a descriptor information structure.
 487:Generated_Source\PSoC4/BLE_1_gatt.c **** *  \param discoveryService: The index of the service instance
 488:Generated_Source\PSoC4/BLE_1_gatt.c **** * 
 489:Generated_Source\PSoC4/BLE_1_gatt.c **** * \return
 490:Generated_Source\PSoC4/BLE_1_gatt.c **** *  None
 491:Generated_Source\PSoC4/BLE_1_gatt.c **** * 
 492:Generated_Source\PSoC4/BLE_1_gatt.c **** ******************************************************************************/
 493:Generated_Source\PSoC4/BLE_1_gatt.c **** void CyBle_GattcDiscoverCharDescriptorsEventHandler(CYBLE_DISC_DESCR_INFO_T *discDescrInfo)
 494:Generated_Source\PSoC4/BLE_1_gatt.c **** {
 483              		.loc 1 494 0
 484              		.cfi_startproc
 485              		@ args = 0, pretend = 0, frame = 0
 486              		@ frame_needed = 0, uses_anonymous_args = 0
 487              	.LVL43:
 488 0000 10B5     		push	{r4, lr}
 489              		.cfi_def_cfa_offset 8
 490              		.cfi_offset 4, -8
 491              		.cfi_offset 14, -4
 495:Generated_Source\PSoC4/BLE_1_gatt.c ****     if(discDescrInfo->uuid.uuid16 == CYBLE_UUID_CHAR_CLIENT_CONFIG)
 492              		.loc 1 495 0
 493 0002 8288     		ldrh	r2, [r0, #4]
 494 0004 084B     		ldr	r3, .L40
 495 0006 9A42     		cmp	r2, r3
 496 0008 0DD1     		bne	.L37
 496:Generated_Source\PSoC4/BLE_1_gatt.c ****     {
 497:Generated_Source\PSoC4/BLE_1_gatt.c ****         CyBle_CheckStoreCharDescrHandle(cyBle_gattc.cccdHandle);
 497              		.loc 1 497 0
 498 000a 084B     		ldr	r3, .L40+4
 499 000c 9B88     		ldrh	r3, [r3, #4]
 500 000e 002B     		cmp	r3, #0
 501 0010 03D1     		bne	.L39
 502              		.loc 1 497 0 is_stmt 0 discriminator 1
 503 0012 4288     		ldrh	r2, [r0, #2]
 504 0014 054B     		ldr	r3, .L40+4
 505 0016 9A80     		strh	r2, [r3, #4]
 506 0018 05E0     		b	.L37
 507              	.L39:
 508              		.loc 1 497 0 discriminator 2
 509 001a 011D     		adds	r1, r0, #4
 510 001c 044B     		ldr	r3, .L40+8
 511 001e 1B68     		ldr	r3, [r3]
 512 0020 8620     		movs	r0, #134
 513              	.LVL44:
 514 0022 4000     		lsls	r0, r0, #1
 515 0024 9847     		blx	r3
 516              	.LVL45:
 517              	.L37:
 498:Generated_Source\PSoC4/BLE_1_gatt.c ****     }
 499:Generated_Source\PSoC4/BLE_1_gatt.c **** }
 518              		.loc 1 499 0 is_stmt 1
ARM GAS  C:\Users\jon\AppData\Local\Temp\ccHZWauF.s 			page 19


 519              		@ sp needed
 520 0026 10BD     		pop	{r4, pc}
 521              	.L41:
 522              		.align	2
 523              	.L40:
 524 0028 02290000 		.word	10498
 525 002c 00000000 		.word	cyBle_gattc
 526 0030 00000000 		.word	CyBle_ApplCallback
 527              		.cfi_endproc
 528              	.LFE7:
 529              		.size	CyBle_GattcDiscoverCharDescriptorsEventHandler, .-CyBle_GattcDiscoverCharDescriptorsEventHan
 530              		.section	.text.CyBle_GattcIndicationEventHandler,"ax",%progbits
 531              		.align	2
 532              		.global	CyBle_GattcIndicationEventHandler
 533              		.code	16
 534              		.thumb_func
 535              		.type	CyBle_GattcIndicationEventHandler, %function
 536              	CyBle_GattcIndicationEventHandler:
 537              	.LFB8:
 500:Generated_Source\PSoC4/BLE_1_gatt.c **** 
 501:Generated_Source\PSoC4/BLE_1_gatt.c **** 
 502:Generated_Source\PSoC4/BLE_1_gatt.c **** /******************************************************************************
 503:Generated_Source\PSoC4/BLE_1_gatt.c **** * Function Name: CyBle_GattcIndicationEventHandler
 504:Generated_Source\PSoC4/BLE_1_gatt.c **** ***************************************************************************//**
 505:Generated_Source\PSoC4/BLE_1_gatt.c **** * 
 506:Generated_Source\PSoC4/BLE_1_gatt.c **** *  Handles the Indication Event.
 507:Generated_Source\PSoC4/BLE_1_gatt.c **** * 
 508:Generated_Source\PSoC4/BLE_1_gatt.c **** *  \param eventParam: The pointer to the data structure specified by the event.
 509:Generated_Source\PSoC4/BLE_1_gatt.c **** * 
 510:Generated_Source\PSoC4/BLE_1_gatt.c **** * \return
 511:Generated_Source\PSoC4/BLE_1_gatt.c **** *  None.
 512:Generated_Source\PSoC4/BLE_1_gatt.c **** * 
 513:Generated_Source\PSoC4/BLE_1_gatt.c **** ******************************************************************************/
 514:Generated_Source\PSoC4/BLE_1_gatt.c **** void CyBle_GattcIndicationEventHandler(CYBLE_GATTC_HANDLE_VALUE_IND_PARAM_T *eventParam)
 515:Generated_Source\PSoC4/BLE_1_gatt.c **** {
 538              		.loc 1 515 0
 539              		.cfi_startproc
 540              		@ args = 0, pretend = 0, frame = 0
 541              		@ frame_needed = 0, uses_anonymous_args = 0
 542              	.LVL46:
 543 0000 10B5     		push	{r4, lr}
 544              		.cfi_def_cfa_offset 8
 545              		.cfi_offset 4, -8
 546              		.cfi_offset 14, -4
 516:Generated_Source\PSoC4/BLE_1_gatt.c ****     if(cyBle_gattc.serviceChanged.valueHandle == eventParam->handleValPair.attrHandle)
 547              		.loc 1 516 0
 548 0002 084B     		ldr	r3, .L44
 549 0004 5A88     		ldrh	r2, [r3, #2]
 550 0006 8389     		ldrh	r3, [r0, #12]
 551 0008 9A42     		cmp	r2, r3
 552 000a 0AD1     		bne	.L42
 517:Generated_Source\PSoC4/BLE_1_gatt.c ****     {
 518:Generated_Source\PSoC4/BLE_1_gatt.c ****         CyBle_ApplCallback((uint32)CYBLE_EVT_GATTC_INDICATION, eventParam);
 553              		.loc 1 518 0
 554 000c 064B     		ldr	r3, .L44+4
 555 000e 1B68     		ldr	r3, [r3]
 556 0010 0100     		movs	r1, r0
ARM GAS  C:\Users\jon\AppData\Local\Temp\ccHZWauF.s 			page 20


 557 0012 8320     		movs	r0, #131
 558              	.LVL47:
 559 0014 4000     		lsls	r0, r0, #1
 560 0016 9847     		blx	r3
 561              	.LVL48:
 519:Generated_Source\PSoC4/BLE_1_gatt.c ****         cyBle_eventHandlerFlag &= (uint8)~CYBLE_CALLBACK;
 562              		.loc 1 519 0
 563 0018 044A     		ldr	r2, .L44+8
 564 001a 1378     		ldrb	r3, [r2]
 565 001c 0121     		movs	r1, #1
 566 001e 8B43     		bics	r3, r1
 567 0020 1370     		strb	r3, [r2]
 568              	.L42:
 520:Generated_Source\PSoC4/BLE_1_gatt.c ****     }
 521:Generated_Source\PSoC4/BLE_1_gatt.c **** }
 569              		.loc 1 521 0
 570              		@ sp needed
 571 0022 10BD     		pop	{r4, pc}
 572              	.L45:
 573              		.align	2
 574              	.L44:
 575 0024 00000000 		.word	cyBle_gattc
 576 0028 00000000 		.word	CyBle_ApplCallback
 577 002c 00000000 		.word	cyBle_eventHandlerFlag
 578              		.cfi_endproc
 579              	.LFE8:
 580              		.size	CyBle_GattcIndicationEventHandler, .-CyBle_GattcIndicationEventHandler
 581              		.comm	cyBle_gattcDiscoveryRange,4,4
 582              		.comm	cyBle_gattc,6,4
 583              		.comm	cyBle_clientState,1,1
 584              		.global	cyBle_gattDB
 585              		.global	cyBle_attValuesLen
 586              		.comm	cyBle_attValuesCCCD,2,4
 587              		.global	cyBle_gatts
 588              		.comm	cyBle_state,1,1
 589              		.section	.rodata
 590              		.align	2
 591              		.set	.LANCHOR0,. + 0
 592              		.type	cyBle_gattDB, %object
 593              		.size	cyBle_gattDB, 260
 594              	cyBle_gattDB:
 595 0000 0100     		.short	1
 596 0002 0028     		.short	10240
 597 0004 01000000 		.word	1
 598 0008 0900     		.short	9
 599 000a 0000     		.space	2
 600 000c 0018     		.short	6144
 601 000e 0000     		.space	2
 602 0010 00000000 		.word	0
 603 0014 0200     		.short	2
 604 0016 0328     		.short	10243
 605 0018 01000200 		.word	131073
 606 001c 0300     		.short	3
 607 001e 0000     		.space	2
 608 0020 002A     		.short	10752
 609 0022 0000     		.space	2
 610 0024 00000000 		.word	0
ARM GAS  C:\Users\jon\AppData\Local\Temp\ccHZWauF.s 			page 21


 611 0028 0300     		.short	3
 612 002a 002A     		.short	10752
 613 002c 01000201 		.word	16908289
 614 0030 0300     		.short	3
 615 0032 0000     		.space	2
 616 0034 0A00     		.short	10
 617 0036 0000     		.space	2
 618 0038 00000000 		.word	cyBle_attValuesLen
 619 003c 0400     		.short	4
 620 003e 0328     		.short	10243
 621 0040 01000200 		.word	131073
 622 0044 0500     		.short	5
 623 0046 0000     		.space	2
 624 0048 012A     		.short	10753
 625 004a 0000     		.space	2
 626 004c 00000000 		.word	0
 627 0050 0500     		.short	5
 628 0052 012A     		.short	10753
 629 0054 01000201 		.word	16908289
 630 0058 0500     		.short	5
 631 005a 0000     		.space	2
 632 005c 0200     		.short	2
 633 005e 0000     		.space	2
 634 0060 08000000 		.word	cyBle_attValuesLen+8
 635 0064 0600     		.short	6
 636 0066 0328     		.short	10243
 637 0068 01000200 		.word	131073
 638 006c 0700     		.short	7
 639 006e 0000     		.space	2
 640 0070 A62A     		.short	10918
 641 0072 0000     		.space	2
 642 0074 00000000 		.word	0
 643 0078 0700     		.short	7
 644 007a A62A     		.short	10918
 645 007c 01000201 		.word	16908289
 646 0080 0700     		.short	7
 647 0082 0000     		.space	2
 648 0084 0100     		.short	1
 649 0086 0000     		.space	2
 650 0088 10000000 		.word	cyBle_attValuesLen+16
 651 008c 0800     		.short	8
 652 008e 0328     		.short	10243
 653 0090 01000200 		.word	131073
 654 0094 0900     		.short	9
 655 0096 0000     		.space	2
 656 0098 C92A     		.short	10953
 657 009a 0000     		.space	2
 658 009c 00000000 		.word	0
 659 00a0 0900     		.short	9
 660 00a2 C92A     		.short	10953
 661 00a4 01000201 		.word	16908289
 662 00a8 0900     		.short	9
 663 00aa 0000     		.space	2
 664 00ac 0100     		.short	1
 665 00ae 0000     		.space	2
 666 00b0 18000000 		.word	cyBle_attValuesLen+24
 667 00b4 0A00     		.short	10
ARM GAS  C:\Users\jon\AppData\Local\Temp\ccHZWauF.s 			page 22


 668 00b6 0028     		.short	10240
 669 00b8 01000000 		.word	1
 670 00bc 0D00     		.short	13
 671 00be 0000     		.space	2
 672 00c0 0118     		.short	6145
 673 00c2 0000     		.space	2
 674 00c4 00000000 		.word	0
 675 00c8 0B00     		.short	11
 676 00ca 0328     		.short	10243
 677 00cc 01002000 		.word	2097153
 678 00d0 0D00     		.short	13
 679 00d2 0000     		.space	2
 680 00d4 052A     		.short	10757
 681 00d6 0000     		.space	2
 682 00d8 00000000 		.word	0
 683 00dc 0C00     		.short	12
 684 00de 052A     		.short	10757
 685 00e0 00002001 		.word	18874368
 686 00e4 0D00     		.short	13
 687 00e6 0000     		.space	2
 688 00e8 0400     		.short	4
 689 00ea 0000     		.space	2
 690 00ec 20000000 		.word	cyBle_attValuesLen+32
 691 00f0 0D00     		.short	13
 692 00f2 0229     		.short	10498
 693 00f4 01010A01 		.word	17432833
 694 00f8 0D00     		.short	13
 695 00fa 0000     		.space	2
 696 00fc 0200     		.short	2
 697 00fe 0000     		.space	2
 698 0100 28000000 		.word	cyBle_attValuesLen+40
 699              		.type	cyBle_gatts, %object
 700              		.size	cyBle_gatts, 6
 701              	cyBle_gatts:
 702 0104 0A00     		.short	10
 703 0106 0C00     		.short	12
 704 0108 0D00     		.short	13
 705              		.data
 706              		.align	2
 707              		.type	cyBle_attValuesLen, %object
 708              		.size	cyBle_attValuesLen, 48
 709              	cyBle_attValuesLen:
 710 0000 0A00     		.short	10
 711 0002 0000     		.space	2
 712 0004 30000000 		.word	cyBle_attValues
 713 0008 0200     		.short	2
 714 000a 0000     		.space	2
 715 000c 3A000000 		.word	cyBle_attValues+10
 716 0010 0100     		.short	1
 717 0012 0000     		.space	2
 718 0014 3C000000 		.word	cyBle_attValues+12
 719 0018 0100     		.short	1
 720 001a 0000     		.space	2
 721 001c 3D000000 		.word	cyBle_attValues+13
 722 0020 0400     		.short	4
 723 0022 0000     		.space	2
 724 0024 3E000000 		.word	cyBle_attValues+14
ARM GAS  C:\Users\jon\AppData\Local\Temp\ccHZWauF.s 			page 23


 725 0028 0200     		.short	2
 726 002a 0000     		.space	2
 727 002c 00000000 		.word	cyBle_attValuesCCCD
 728              		.type	cyBle_attValues, %object
 729              		.size	cyBle_attValues, 18
 730              	cyBle_attValues:
 731 0030 43       		.byte	67
 732 0031 6C       		.byte	108
 733 0032 69       		.byte	105
 734 0033 65       		.byte	101
 735 0034 6E       		.byte	110
 736 0035 74       		.byte	116
 737 0036 20       		.byte	32
 738 0037 42       		.byte	66
 739 0038 4C       		.byte	76
 740 0039 45       		.byte	69
 741 003a 00       		.byte	0
 742 003b 00       		.byte	0
 743 003c 00       		.byte	0
 744 003d 00       		.byte	0
 745 003e 00       		.byte	0
 746 003f 00       		.byte	0
 747 0040 00       		.byte	0
 748 0041 00       		.byte	0
 749              		.text
 750              	.Letext0:
 751              		.file 2 "Generated_Source\\PSoC4\\cytypes.h"
 752              		.file 3 "Generated_Source\\PSoC4\\BLE_1_Stack.h"
 753              		.file 4 "Generated_Source\\PSoC4\\BLE_1_StackGatt.h"
 754              		.file 5 "Generated_Source\\PSoC4\\BLE_1_StackGattServer.h"
 755              		.file 6 "Generated_Source\\PSoC4\\BLE_1_StackGattClient.h"
 756              		.file 7 "Generated_Source\\PSoC4\\BLE_1_StackGattDb.h"
 757              		.file 8 "Generated_Source\\PSoC4\\BLE_1.h"
 758              		.file 9 "Generated_Source\\PSoC4\\BLE_1_gatt.h"
 759              		.file 10 "Generated_Source\\PSoC4\\BLE_1_eventHandler.h"