ARM GAS  C:\Users\jon\AppData\Local\Temp\ccv77ksD.s 			page 1


   1              		.syntax unified
   2              		.cpu cortex-m0
   3              		.fpu softvfp
   4              		.eabi_attribute 20, 1
   5              		.eabi_attribute 21, 1
   6              		.eabi_attribute 23, 3
   7              		.eabi_attribute 24, 1
   8              		.eabi_attribute 25, 1
   9              		.eabi_attribute 26, 1
  10              		.eabi_attribute 30, 1
  11              		.eabi_attribute 34, 0
  12              		.eabi_attribute 18, 4
  13              		.thumb
  14              		.syntax unified
  15              		.file	"main.c"
  16              		.text
  17              	.Ltext0:
  18              		.cfi_sections	.debug_frame
  19              		.section	.text.LoadPeripheralDeviceData,"ax",%progbits
  20              		.align	2
  21              		.global	LoadPeripheralDeviceData
  22              		.code	16
  23              		.thumb_func
  24              		.type	LoadPeripheralDeviceData, %function
  25              	LoadPeripheralDeviceData:
  26              	.LFB36:
  27              		.file 1 "main.c"
   1:main.c        **** /**
   2:main.c        ****  * One-Way Communication demo client for PSoC 4 BLE.
   3:main.c        ****  *
   4:main.c        ****  * Pressing SW2 on the server Pioneer Kit base board should cause
   5:main.c        ****  * the red LED to light on the client Pioneer Kit base board. 
   6:main.c        ****  * 
   7:main.c        ****  * by Jonathan Bush
   8:main.c        ****  * Arizona State University
   9:main.c        ****  * 2018.11.15
  10:main.c        ****  * 
  11:main.c        ****  * Based on BluetoothCommunication by Harsha Kadekar
  12:main.c        ****  * https://github.com/harsha-kadekar/BluetoothCommunication
  13:main.c        ****  *
  14:main.c        ****  * Released under the Apache License 2.0
  15:main.c        ****  */
  16:main.c        **** 
  17:main.c        **** #include <project.h>
  18:main.c        **** #include <main.h>
  19:main.c        **** 
  20:main.c        **** /* 'list_of_devices' is of type 'CYBLE_GAPC_ADV_REPORT_T' (defined in 
  21:main.c        ****  * BLE_StackGap.h) that is used to store the reports of the peripheral devices
  22:main.c        **** * being scanned by this Central device*/
  23:main.c        **** CYBLE_GAPC_ADV_REPORT_T 	list_of_devices;
  24:main.c        **** 
  25:main.c        **** /* 'connectPeriphDevice' is a variable of type 'CYBLE_GAP_BD_ADDR_T' (defined in 
  26:main.c        **** * BLE_StackGap.h) and is used to store address of the connected device. */
  27:main.c        **** CYBLE_GAP_BD_ADDR_T 		connectPeriphDevice;
  28:main.c        **** 
  29:main.c        **** /* 'connHandle' is a variable of type 'CYBLE_CONN_HANDLE_T' (defined in 
  30:main.c        **** * BLE_StackGatt.h) and is used to store the connection handle parameters after
ARM GAS  C:\Users\jon\AppData\Local\Temp\ccv77ksD.s 			page 2


  31:main.c        **** * connecting with the peripheral device. */
  32:main.c        **** CYBLE_CONN_HANDLE_T			connHandle;
  33:main.c        **** 
  34:main.c        **** /* 'deviceConnected' flag tells the status of connection with BLE peripheral Device */
  35:main.c        **** uint8 deviceConnected = FALSE;
  36:main.c        **** 
  37:main.c        **** /* 'ble_state' stores the state of connection which is used for updating LEDs */
  38:main.c        **** //uint8 ble_state = BLE_DISCONNECTED;
  39:main.c        **** 
  40:main.c        **** /* 'address_store' stores the addresses returned by Scanning results */
  41:main.c        **** uint8 address_store[6];
  42:main.c        **** 
  43:main.c        **** /* 'peripheralAddress' stores the addresses of device presently connected to */
  44:main.c        **** uint8 peripheralAddress[6];
  45:main.c        **** 
  46:main.c        **** /* 'peripheralFound' flag tells whether the peripheral device with the required Address
  47:main.c        ****  * has been found during scanning or not. */
  48:main.c        **** uint8 peripheralFound = FALSE;
  49:main.c        **** 
  50:main.c        **** /* 'addedDevices' tells the number of devices that has been added to the list till now. */
  51:main.c        **** uint8 addedDevices = FALSE;
  52:main.c        **** 
  53:main.c        **** /* 'restartScanning' flag indicates to application whether starting scan API has to be
  54:main.c        **** * called or not */
  55:main.c        **** uint8 restartScanning = FALSE;
  56:main.c        **** 
  57:main.c        **** //This structure is used to recieve the data from the server side.
  58:main.c        **** union ServerBytes sensor_data;
  59:main.c        **** 
  60:main.c        **** int led_enable; /* whether the LED should be enabled or not, read from the server */
  61:main.c        **** 
  62:main.c        **** char buf[200]; //just to hold text values in for writing to UART
  63:main.c        **** 
  64:main.c        **** /*******************************************************************************
  65:main.c        **** * Function Name: LoadPeripheralDeviceData
  66:main.c        **** ********************************************************************************
  67:main.c        **** * Summary:
  68:main.c        **** *        This function stores the address of the peripheral device to which this
  69:main.c        **** * Central device wishes to connect. 
  70:main.c        **** *
  71:main.c        **** * Parameters:
  72:main.c        **** *  void
  73:main.c        **** *
  74:main.c        **** * Return:
  75:main.c        **** *  void
  76:main.c        **** *
  77:main.c        **** 
  78:main.c        **** *******************************************************************************/
  79:main.c        **** void LoadPeripheralDeviceData(void)
  80:main.c        **** {
  28              		.loc 1 80 0
  29              		.cfi_startproc
  30              		@ args = 0, pretend = 0, frame = 0
  31              		@ frame_needed = 0, uses_anonymous_args = 0
  32              		@ link register save eliminated.
  81:main.c        **** 	/* This stores the 6-byte BD address of peripheral device to which we have to connect.
  82:main.c        ****        This is Servers MAC address. To know the MAC Address. Program your server, 
ARM GAS  C:\Users\jon\AppData\Local\Temp\ccv77ksD.s 			page 3


  83:main.c        ****        Open your CySmart App in your phone. Serach for devices. It should list "Server BLE"
  84:main.c        ****        device. Below the name it should list the MAC address of that device.
  85:main.c        **** 	.*/
  86:main.c        ****     //01acb4-afe991
  87:main.c        **** 		peripheralAddress[5] = 0x01;
  33              		.loc 1 87 0
  34 0000 064B     		ldr	r3, .L2
  35 0002 0122     		movs	r2, #1
  36 0004 5A71     		strb	r2, [r3, #5]
  88:main.c        **** 		peripheralAddress[4] = 0xAC;
  37              		.loc 1 88 0
  38 0006 AB32     		adds	r2, r2, #171
  39 0008 1A71     		strb	r2, [r3, #4]
  89:main.c        **** 		peripheralAddress[3] = 0xB4;
  40              		.loc 1 89 0
  41 000a 0832     		adds	r2, r2, #8
  42 000c DA70     		strb	r2, [r3, #3]
  90:main.c        **** 		peripheralAddress[2] = 0xAF;
  43              		.loc 1 90 0
  44 000e 053A     		subs	r2, r2, #5
  45 0010 9A70     		strb	r2, [r3, #2]
  91:main.c        **** 		peripheralAddress[1] = 0xE9;
  46              		.loc 1 91 0
  47 0012 3A32     		adds	r2, r2, #58
  48 0014 5A70     		strb	r2, [r3, #1]
  92:main.c        **** 		peripheralAddress[0] = 0x91;
  49              		.loc 1 92 0
  50 0016 583A     		subs	r2, r2, #88
  51 0018 1A70     		strb	r2, [r3]
  93:main.c        ****              
  94:main.c        **** }
  52              		.loc 1 94 0
  53              		@ sp needed
  54 001a 7047     		bx	lr
  55              	.L3:
  56              		.align	2
  57              	.L2:
  58 001c 00000000 		.word	peripheralAddress
  59              		.cfi_endproc
  60              	.LFE36:
  61              		.size	LoadPeripheralDeviceData, .-LoadPeripheralDeviceData
  62              		.section	.text.HandleScanDevices,"ax",%progbits
  63              		.align	2
  64              		.global	HandleScanDevices
  65              		.code	16
  66              		.thumb_func
  67              		.type	HandleScanDevices, %function
  68              	HandleScanDevices:
  69              	.LFB37:
  95:main.c        **** 
  96:main.c        **** /*******************************************************************************
  97:main.c        **** * Function Name: HandleScanDevices
  98:main.c        **** ********************************************************************************
  99:main.c        **** * Summary:
 100:main.c        **** *        This function checks for new devices that have been scanned 
 101:main.c        **** *           sets flag to allow connection with it.
 102:main.c        **** *
ARM GAS  C:\Users\jon\AppData\Local\Temp\ccv77ksD.s 			page 4


 103:main.c        **** * Parameters:
 104:main.c        **** *  scanReport:		parameter of type CYBLE_GAPC_ADV_REPORT_T* returned by BLE
 105:main.c        **** * 					event CYBLE_EVT_GAPC_SCAN_PROGRESS_RESULT.
 106:main.c        **** *
 107:main.c        **** * Return:
 108:main.c        **** *  void
 109:main.c        **** *
 110:main.c        **** *******************************************************************************/
 111:main.c        **** void HandleScanDevices(CYBLE_GAPC_ADV_REPORT_T* scanReport)
 112:main.c        **** {
  70              		.loc 1 112 0
  71              		.cfi_startproc
  72              		@ args = 0, pretend = 0, frame = 0
  73              		@ frame_needed = 0, uses_anonymous_args = 0
  74              	.LVL0:
  75 0000 70B5     		push	{r4, r5, r6, lr}
  76              		.cfi_def_cfa_offset 16
  77              		.cfi_offset 4, -16
  78              		.cfi_offset 5, -12
  79              		.cfi_offset 6, -8
  80              		.cfi_offset 14, -4
  81 0002 0500     		movs	r5, r0
 113:main.c        ****     //Compare scanned device address with the server address
 114:main.c        **** 	if(FALSE == memcmp(&peripheralAddress[0], scanReport->peerBdAddr, ADV_ADDR_LEN))
  82              		.loc 1 114 0
  83 0004 4468     		ldr	r4, [r0, #4]
  84 0006 0622     		movs	r2, #6
  85 0008 2100     		movs	r1, r4
  86 000a 0D48     		ldr	r0, .L6
  87              	.LVL1:
  88 000c FFF7FEFF 		bl	memcmp
  89              	.LVL2:
  90 0010 0028     		cmp	r0, #0
  91 0012 14D1     		bne	.L4
 115:main.c        **** 	{
 116:main.c        **** 		/* Save the connected device BD Address and Type*/
 117:main.c        **** 		connectPeriphDevice.bdAddr[0] = scanReport->peerBdAddr[0];
  92              		.loc 1 117 0
  93 0014 2278     		ldrb	r2, [r4]
  94 0016 0B4B     		ldr	r3, .L6+4
  95 0018 1A70     		strb	r2, [r3]
 118:main.c        **** 		connectPeriphDevice.bdAddr[1] = scanReport->peerBdAddr[1];
  96              		.loc 1 118 0
  97 001a 6278     		ldrb	r2, [r4, #1]
  98 001c 5A70     		strb	r2, [r3, #1]
 119:main.c        **** 		connectPeriphDevice.bdAddr[2] = scanReport->peerBdAddr[2];
  99              		.loc 1 119 0
 100 001e A278     		ldrb	r2, [r4, #2]
 101 0020 9A70     		strb	r2, [r3, #2]
 120:main.c        **** 		connectPeriphDevice.bdAddr[3] = scanReport->peerBdAddr[3];
 102              		.loc 1 120 0
 103 0022 E278     		ldrb	r2, [r4, #3]
 104 0024 DA70     		strb	r2, [r3, #3]
 121:main.c        **** 		connectPeriphDevice.bdAddr[4] = scanReport->peerBdAddr[4];
 105              		.loc 1 121 0
 106 0026 2279     		ldrb	r2, [r4, #4]
 107 0028 1A71     		strb	r2, [r3, #4]
ARM GAS  C:\Users\jon\AppData\Local\Temp\ccv77ksD.s 			page 5


 122:main.c        **** 		connectPeriphDevice.bdAddr[5] = scanReport->peerBdAddr[5];
 108              		.loc 1 122 0
 109 002a 6A68     		ldr	r2, [r5, #4]
 110 002c 5279     		ldrb	r2, [r2, #5]
 111 002e 5A71     		strb	r2, [r3, #5]
 123:main.c        ****         
 124:main.c        **** 		
 125:main.c        **** 		connectPeriphDevice.type = scanReport->peerAddrType;
 112              		.loc 1 125 0
 113 0030 6A78     		ldrb	r2, [r5, #1]
 114 0032 9A71     		strb	r2, [r3, #6]
 126:main.c        **** 			
 127:main.c        **** 		/* Set the flag to notify application of a connected peripheral device */
 128:main.c        **** 		peripheralFound = TRUE;	
 115              		.loc 1 128 0
 116 0034 0122     		movs	r2, #1
 117 0036 044B     		ldr	r3, .L6+8
 118 0038 1A70     		strb	r2, [r3]
 129:main.c        **** 		
 130:main.c        **** 		/* Stop existing BLE Scan */
 131:main.c        **** 		CyBle_GapcStopScan();
 119              		.loc 1 131 0
 120 003a FFF7FEFF 		bl	CyBle_GapcStopScan
 121              	.LVL3:
 122              	.L4:
 132:main.c        **** 	}
 133:main.c        **** 	
 134:main.c        **** 	
 135:main.c        **** }
 123              		.loc 1 135 0
 124              		@ sp needed
 125              	.LVL4:
 126 003e 70BD     		pop	{r4, r5, r6, pc}
 127              	.L7:
 128              		.align	2
 129              	.L6:
 130 0040 00000000 		.word	peripheralAddress
 131 0044 00000000 		.word	connectPeriphDevice
 132 0048 00000000 		.word	.LANCHOR0
 133              		.cfi_endproc
 134              	.LFE37:
 135              		.size	HandleScanDevices, .-HandleScanDevices
 136              		.section	.text.BluetoothEventHandler,"ax",%progbits
 137              		.align	2
 138              		.global	BluetoothEventHandler
 139              		.code	16
 140              		.thumb_func
 141              		.type	BluetoothEventHandler, %function
 142              	BluetoothEventHandler:
 143              	.LFB38:
 136:main.c        **** 
 137:main.c        **** /*******************************************************************************
 138:main.c        **** * Function Name: BluetoothEventHandler
 139:main.c        **** ********************************************************************************
 140:main.c        **** * Summary:
 141:main.c        **** *        Call back event function to handle various events from BLE stack
 142:main.c        **** *
ARM GAS  C:\Users\jon\AppData\Local\Temp\ccv77ksD.s 			page 6


 143:main.c        **** * Parameters:
 144:main.c        **** *  event:		event returned
 145:main.c        **** *  eventParam:	link to value of the event parameter returned
 146:main.c        **** *
 147:main.c        **** * Return:
 148:main.c        **** *  void
 149:main.c        **** *
 150:main.c        **** *******************************************************************************/
 151:main.c        **** void BluetoothEventHandler(uint32 event, void *eventparam)
 152:main.c        **** {
 144              		.loc 1 152 0
 145              		.cfi_startproc
 146              		@ args = 0, pretend = 0, frame = 24
 147              		@ frame_needed = 0, uses_anonymous_args = 0
 148              	.LVL5:
 149 0000 30B5     		push	{r4, r5, lr}
 150              		.cfi_def_cfa_offset 12
 151              		.cfi_offset 4, -12
 152              		.cfi_offset 5, -8
 153              		.cfi_offset 14, -4
 154 0002 87B0     		sub	sp, sp, #28
 155              		.cfi_def_cfa_offset 40
 153:main.c        **** 	/* 'apiResult' is a variable of type 'CYBLE_API_RESULT_T' (defined in 
 154:main.c        **** 	* BLE_StackTypes.h) and is used to store the return value from BLE APIs. */
 155:main.c        **** 	CYBLE_API_RESULT_T 			apiResult;
 156:main.c        **** 	
 157:main.c        **** 	/* 'scan_report' is a variable of type 'CYBLE_GAPC_ADV_REPORT_T' (defined in 
 158:main.c        **** 	* BLE_StackGap.h) and is used to store report retuned from Scan results. */
 159:main.c        **** 	CYBLE_GAPC_ADV_REPORT_T		scan_report;
 160:main.c        ****     
 161:main.c        ****     //This is the structure sent by server for any read requests initiated by client
 162:main.c        ****     CYBLE_GATTC_READ_RSP_PARAM_T *readParams;
 163:main.c        **** 	
 164:main.c        **** 	switch(event)
 156              		.loc 1 164 0
 157 0004 2828     		cmp	r0, #40
 158 0006 3FD0     		beq	.L10
 159 0008 06D8     		bhi	.L11
 160 000a 2028     		cmp	r0, #32
 161 000c 21D0     		beq	.L12
 162 000e 2728     		cmp	r0, #39
 163 0010 32D0     		beq	.L13
 164 0012 0128     		cmp	r0, #1
 165 0014 55D1     		bne	.L8
 166 0016 0CE0     		b	.L14
 167              	.L11:
 168 0018 4128     		cmp	r0, #65
 169 001a 28D0     		beq	.L15
 170 001c 02D8     		bhi	.L16
 171 001e 2B28     		cmp	r0, #43
 172 0020 0BD0     		beq	.L17
 173 0022 4EE0     		b	.L8
 174              	.L16:
 175 0024 4928     		cmp	r0, #73
 176 0026 48D0     		beq	.L18
 177 0028 8923     		movs	r3, #137
 178 002a 5B00     		lsls	r3, r3, #1
ARM GAS  C:\Users\jon\AppData\Local\Temp\ccv77ksD.s 			page 7


 179 002c 9842     		cmp	r0, r3
 180 002e 40D0     		beq	.L19
 181 0030 47E0     		b	.L8
 182              	.L14:
 165:main.c        **** 	{
 166:main.c        **** 		case CYBLE_EVT_STACK_ON:
 167:main.c        **** 			
 168:main.c        **** 			/* Set start scanning flag to allow calling the API in main loop */
 169:main.c        **** 			restartScanning = TRUE;
 183              		.loc 1 169 0
 184 0032 0122     		movs	r2, #1
 185 0034 244B     		ldr	r3, .L20
 186 0036 5A70     		strb	r2, [r3, #1]
 170:main.c        **** 		break;
 187              		.loc 1 170 0
 188 0038 43E0     		b	.L8
 189              	.L17:
 171:main.c        **** 			
 172:main.c        **** 		case CYBLE_EVT_GAPC_SCAN_START_STOP:
 173:main.c        **** 			/* Add relevant code here pertaining to Starting/Stopping of Scan*/
 174:main.c        **** 			if(CyBle_GetState() == CYBLE_STATE_DISCONNECTED)
 190              		.loc 1 174 0
 191 003a 244B     		ldr	r3, .L20+4
 192 003c 1B78     		ldrb	r3, [r3]
 193 003e 052B     		cmp	r3, #5
 194 0040 3FD1     		bne	.L8
 175:main.c        **** 			{	
 176:main.c        **** 				if(!peripheralFound)
 195              		.loc 1 176 0
 196 0042 214B     		ldr	r3, .L20
 197 0044 1B78     		ldrb	r3, [r3]
 198 0046 002B     		cmp	r3, #0
 199 0048 3BD1     		bne	.L8
 177:main.c        **** 				{
 178:main.c        **** 					restartScanning = TRUE;
 200              		.loc 1 178 0
 201 004a 0122     		movs	r2, #1
 202 004c 1E4B     		ldr	r3, .L20
 203 004e 5A70     		strb	r2, [r3, #1]
 204 0050 37E0     		b	.L8
 205              	.L12:
 179:main.c        **** 				}
 180:main.c        **** 			}
 181:main.c        **** 		break;
 182:main.c        **** 			
 183:main.c        **** 		case CYBLE_EVT_GAPC_SCAN_PROGRESS_RESULT:
 184:main.c        **** 			/* This event is generated whenever there is a device found*/
 185:main.c        **** 			if(CYBLE_STATE_CONNECTED != CyBle_GetState())	
 206              		.loc 1 185 0
 207 0052 1E4B     		ldr	r3, .L20+4
 208 0054 1B78     		ldrb	r3, [r3]
 209 0056 022B     		cmp	r3, #2
 210 0058 33D0     		beq	.L8
 186:main.c        **** 			{
 187:main.c        **** 				/* If we are not connected to any peripheral device, then save the new device  
 188:main.c        **** 					information so to add it to our list */
 189:main.c        **** 				scan_report = *(CYBLE_GAPC_ADV_REPORT_T*) eventparam;
ARM GAS  C:\Users\jon\AppData\Local\Temp\ccv77ksD.s 			page 8


 211              		.loc 1 189 0
 212 005a 01A8     		add	r0, sp, #4
 213              	.LVL6:
 214 005c 0300     		movs	r3, r0
 215 005e 0A00     		movs	r2, r1
 216 0060 32CA     		ldmia	r2!, {r1, r4, r5}
 217 0062 32C3     		stmia	r3!, {r1, r4, r5}
 218              	.LVL7:
 219 0064 12CA     		ldmia	r2!, {r1, r4}
 220 0066 12C3     		stmia	r3!, {r1, r4}
 221              	.LVL8:
 190:main.c        **** 				
 191:main.c        **** 				/*Check if the device listed is the one we want to connect, if so flag it for
 192:main.c        ****                  connection and stop scanning*/
 193:main.c        **** 				HandleScanDevices(&scan_report);
 222              		.loc 1 193 0
 223 0068 FFF7FEFF 		bl	HandleScanDevices
 224              	.LVL9:
 225 006c 29E0     		b	.L8
 226              	.LVL10:
 227              	.L15:
 194:main.c        **** 			}
 195:main.c        **** 		break;
 196:main.c        **** 			
 197:main.c        ****  		case CYBLE_EVT_GATT_CONNECT_IND:
 198:main.c        **** 
 199:main.c        **** 			/* When the peripheral device is connected, store the connection handle.*/
 200:main.c        ****             connHandle = *(CYBLE_CONN_HANDLE_T *)eventparam;
 228              		.loc 1 200 0
 229 006e 0222     		movs	r2, #2
 230 0070 1748     		ldr	r0, .L20+8
 231              	.LVL11:
 232 0072 FFF7FEFF 		bl	memcpy
 233              	.LVL12:
 201:main.c        ****             break;
 234              		.loc 1 201 0
 235 0076 24E0     		b	.L8
 236              	.LVL13:
 237              	.L13:
 202:main.c        **** 			
 203:main.c        **** 		case CYBLE_EVT_GATT_DISCONNECT_IND:
 204:main.c        **** 			/* When the peripheral device is disconnected, reset variables*/
 205:main.c        **** 			
 206:main.c        **** 			break;
 207:main.c        **** 			
 208:main.c        **** 		case CYBLE_EVT_GAP_DEVICE_CONNECTED:
 209:main.c        **** 			
 210:main.c        **** 			/* The Device is connected now. Start Attributes discovery process.*/
 211:main.c        **** 			apiResult = CyBle_GattcStartDiscovery(connHandle);
 238              		.loc 1 211 0
 239 0078 154A     		ldr	r2, .L20+8
 240 007a 1378     		ldrb	r3, [r2]
 241 007c 5078     		ldrb	r0, [r2, #1]
 242              	.LVL14:
 243 007e 0002     		lsls	r0, r0, #8
 244 0080 1843     		orrs	r0, r3
 245 0082 FFF7FEFF 		bl	CyBle_GattcStartDiscovery
ARM GAS  C:\Users\jon\AppData\Local\Temp\ccv77ksD.s 			page 9


 246              	.LVL15:
 212:main.c        **** 			
 213:main.c        ****         break;
 247              		.loc 1 213 0
 248 0086 1CE0     		b	.L8
 249              	.LVL16:
 250              	.L10:
 214:main.c        **** 			
 215:main.c        **** 		case CYBLE_EVT_GAP_DEVICE_DISCONNECTED:
 216:main.c        **** 			/* Reset all saved peripheral Addresses */
 217:main.c        **** 				list_of_devices.peerBdAddr[0] = FALSE;
 251              		.loc 1 217 0
 252 0088 124A     		ldr	r2, .L20+12
 253 008a 0023     		movs	r3, #0
 254 008c 5168     		ldr	r1, [r2, #4]
 255              	.LVL17:
 256 008e 0B70     		strb	r3, [r1]
 218:main.c        **** 				list_of_devices.peerBdAddr[1] = FALSE;
 257              		.loc 1 218 0
 258 0090 5168     		ldr	r1, [r2, #4]
 259 0092 4B70     		strb	r3, [r1, #1]
 219:main.c        **** 				list_of_devices.peerBdAddr[2] = FALSE;
 260              		.loc 1 219 0
 261 0094 5168     		ldr	r1, [r2, #4]
 262 0096 8B70     		strb	r3, [r1, #2]
 220:main.c        **** 				list_of_devices.peerBdAddr[3] = FALSE;
 263              		.loc 1 220 0
 264 0098 5168     		ldr	r1, [r2, #4]
 265 009a CB70     		strb	r3, [r1, #3]
 221:main.c        **** 				list_of_devices.peerBdAddr[4] = FALSE;
 266              		.loc 1 221 0
 267 009c 5168     		ldr	r1, [r2, #4]
 268 009e 0B71     		strb	r3, [r1, #4]
 222:main.c        **** 				list_of_devices.peerBdAddr[5] = FALSE;
 269              		.loc 1 222 0
 270 00a0 5268     		ldr	r2, [r2, #4]
 271 00a2 5371     		strb	r3, [r2, #5]
 223:main.c        **** 			
 224:main.c        **** 			/* Reset application Flags on BLE Disconnect */
 225:main.c        **** 			addedDevices = FALSE;
 272              		.loc 1 225 0
 273 00a4 084A     		ldr	r2, .L20
 274 00a6 9370     		strb	r3, [r2, #2]
 226:main.c        **** 			peripheralFound = FALSE;
 275              		.loc 1 226 0
 276 00a8 1370     		strb	r3, [r2]
 227:main.c        **** 			deviceConnected = FALSE;
 277              		.loc 1 227 0
 278 00aa D370     		strb	r3, [r2, #3]
 228:main.c        **** 			
 229:main.c        **** 			/* Set the flag for rescanning after wakeup */
 230:main.c        **** 			restartScanning = TRUE;
 279              		.loc 1 230 0
 280 00ac 0133     		adds	r3, r3, #1
 281 00ae 5370     		strb	r3, [r2, #1]
 231:main.c        ****                 
 232:main.c        ****             //OnOff = 0;
ARM GAS  C:\Users\jon\AppData\Local\Temp\ccv77ksD.s 			page 10


 233:main.c        **** 			
 234:main.c        **** 			break;
 282              		.loc 1 234 0
 283 00b0 07E0     		b	.L8
 284              	.LVL18:
 285              	.L19:
 235:main.c        **** 			
 236:main.c        **** 	
 237:main.c        **** 		case CYBLE_EVT_GATTC_DISCOVERY_COMPLETE:
 238:main.c        **** 			/* This event is generated whenever the discovery procedure is complete*/
 239:main.c        **** 			
 240:main.c        **** 			/*Set the Device connected flag*/
 241:main.c        **** 			deviceConnected = TRUE;
 286              		.loc 1 241 0
 287 00b2 0122     		movs	r2, #1
 288 00b4 044B     		ldr	r3, .L20
 289 00b6 DA70     		strb	r2, [r3, #3]
 242:main.c        **** 			
 243:main.c        **** 		break;
 290              		.loc 1 243 0
 291 00b8 03E0     		b	.L8
 292              	.L18:
 293              	.LVL19:
 244:main.c        ****             
 245:main.c        ****         case CYBLE_EVT_GATTC_READ_RSP:
 246:main.c        **** 			/* This event is generated when the server sends a response to a read request*/
 247:main.c        **** 			readParams = (CYBLE_GATTC_READ_RSP_PARAM_T *) eventparam;
 248:main.c        ****             
 249:main.c        ****             led_enable = readParams->value.val[0];
 294              		.loc 1 249 0
 295 00ba 4B68     		ldr	r3, [r1, #4]
 296 00bc 1A78     		ldrb	r2, [r3]
 297 00be 064B     		ldr	r3, .L20+16
 298 00c0 1A60     		str	r2, [r3]
 299              	.LVL20:
 300              	.L8:
 250:main.c        ****               
 251:main.c        **** 		break;
 252:main.c        **** 	}
 253:main.c        **** }
 301              		.loc 1 253 0
 302 00c2 07B0     		add	sp, sp, #28
 303              		@ sp needed
 304 00c4 30BD     		pop	{r4, r5, pc}
 305              	.L21:
 306 00c6 C046     		.align	2
 307              	.L20:
 308 00c8 00000000 		.word	.LANCHOR0
 309 00cc 00000000 		.word	cyBle_state
 310 00d0 00000000 		.word	connHandle
 311 00d4 00000000 		.word	list_of_devices
 312 00d8 00000000 		.word	led_enable
 313              		.cfi_endproc
 314              	.LFE38:
 315              		.size	BluetoothEventHandler, .-BluetoothEventHandler
 316              		.section	.text.InitializeSystem,"ax",%progbits
 317              		.align	2
ARM GAS  C:\Users\jon\AppData\Local\Temp\ccv77ksD.s 			page 11


 318              		.global	InitializeSystem
 319              		.code	16
 320              		.thumb_func
 321              		.type	InitializeSystem, %function
 322              	InitializeSystem:
 323              	.LFB39:
 254:main.c        **** 
 255:main.c        **** /*
 256:main.c        **** Name: InitializeSystem
 257:main.c        **** Description: This function is used to initialize the system. It starts the bluetooth, uart
 258:main.c        ****              puts initial configuration to LEDs etc
 259:main.c        **** Paramters: - 
 260:main.c        **** Return: - 
 261:main.c        **** */
 262:main.c        **** void InitializeSystem(void)
 263:main.c        **** {
 324              		.loc 1 263 0
 325              		.cfi_startproc
 326              		@ args = 0, pretend = 0, frame = 0
 327              		@ frame_needed = 0, uses_anonymous_args = 0
 328 0000 10B5     		push	{r4, lr}
 329              		.cfi_def_cfa_offset 8
 330              		.cfi_offset 4, -8
 331              		.cfi_offset 14, -4
 264:main.c        ****     led_enable = FALSE;
 332              		.loc 1 264 0
 333 0002 0024     		movs	r4, #0
 334 0004 064B     		ldr	r3, .L23
 335 0006 1C60     		str	r4, [r3]
 265:main.c        ****     
 266:main.c        **** 	/* Enable global interrupts. */
 267:main.c        **** 	CyGlobalIntEnable; 
 336              		.loc 1 267 0
 337              		.syntax divided
 338              	@ 267 "main.c" 1
 339 0008 62B6     		CPSIE   i
 340              	@ 0 "" 2
 268:main.c        **** 	
 269:main.c        ****     
 270:main.c        **** 	/* Start BLE component with appropriate Event handler function */
 271:main.c        **** 	CyBle_Start(BluetoothEventHandler);	
 341              		.loc 1 271 0
 342              		.thumb
 343              		.syntax unified
 344 000a 0648     		ldr	r0, .L23+4
 345 000c FFF7FEFF 		bl	CyBle_Start
 346              	.LVL21:
 272:main.c        **** 	
 273:main.c        **** 	/* Load the BD address of peripheral device to which we have to connect */
 274:main.c        **** 	LoadPeripheralDeviceData(); 
 347              		.loc 1 274 0
 348 0010 FFF7FEFF 		bl	LoadPeripheralDeviceData
 349              	.LVL22:
 275:main.c        ****     
 276:main.c        ****     sensor_data.values[0] = 0;
 350              		.loc 1 276 0
 351 0014 044B     		ldr	r3, .L23+8
ARM GAS  C:\Users\jon\AppData\Local\Temp\ccv77ksD.s 			page 12


 352 0016 1C70     		strb	r4, [r3]
 277:main.c        ****     sensor_data.values[1] = 0;
 353              		.loc 1 277 0
 354 0018 5C70     		strb	r4, [r3, #1]
 278:main.c        ****     sensor_data.values[2] = 0;
 355              		.loc 1 278 0
 356 001a 9C70     		strb	r4, [r3, #2]
 279:main.c        ****     
 280:main.c        **** }
 357              		.loc 1 280 0
 358              		@ sp needed
 359 001c 10BD     		pop	{r4, pc}
 360              	.L24:
 361 001e C046     		.align	2
 362              	.L23:
 363 0020 00000000 		.word	led_enable
 364 0024 00000000 		.word	BluetoothEventHandler
 365 0028 00000000 		.word	sensor_data
 366              		.cfi_endproc
 367              	.LFE39:
 368              		.size	InitializeSystem, .-InitializeSystem
 369              		.section	.text.main,"ax",%progbits
 370              		.align	2
 371              		.global	main
 372              		.code	16
 373              		.thumb_func
 374              		.type	main, %function
 375              	main:
 376              	.LFB40:
 281:main.c        **** 
 282:main.c        **** /* end borrowed code */
 283:main.c        **** 
 284:main.c        **** int main(void)
 285:main.c        **** {
 377              		.loc 1 285 0
 378              		.cfi_startproc
 379              		@ Volatile: function does not return.
 380              		@ args = 0, pretend = 0, frame = 0
 381              		@ frame_needed = 0, uses_anonymous_args = 0
 382 0000 10B5     		push	{r4, lr}
 383              		.cfi_def_cfa_offset 8
 384              		.cfi_offset 4, -8
 385              		.cfi_offset 14, -4
 286:main.c        ****     InitializeSystem();
 386              		.loc 1 286 0
 387 0002 FFF7FEFF 		bl	InitializeSystem
 388              	.LVL23:
 389              	.L30:
 287:main.c        ****     
 288:main.c        ****     for(;;)
 289:main.c        ****     {
 290:main.c        ****         CyBle_ProcessEvents();
 390              		.loc 1 290 0
 391 0006 FFF7FEFF 		bl	CyBle_ProcessEvents
 392              	.LVL24:
 291:main.c        ****         if(peripheralFound) {
 393              		.loc 1 291 0
ARM GAS  C:\Users\jon\AppData\Local\Temp\ccv77ksD.s 			page 13


 394 000a 174B     		ldr	r3, .L31
 395 000c 1B78     		ldrb	r3, [r3]
 396 000e 002B     		cmp	r3, #0
 397 0010 07D0     		beq	.L26
 292:main.c        ****             CyBle_GapcConnectDevice(&connectPeriphDevice);
 398              		.loc 1 292 0
 399 0012 1648     		ldr	r0, .L31+4
 400 0014 FFF7FEFF 		bl	CyBle_GapcConnectDevice
 401              	.LVL25:
 293:main.c        ****             CyBle_ProcessEvents();
 402              		.loc 1 293 0
 403 0018 FFF7FEFF 		bl	CyBle_ProcessEvents
 404              	.LVL26:
 294:main.c        ****             peripheralFound = FALSE;
 405              		.loc 1 294 0
 406 001c 0022     		movs	r2, #0
 407 001e 124B     		ldr	r3, .L31
 408 0020 1A70     		strb	r2, [r3]
 409              	.L26:
 295:main.c        ****         }
 296:main.c        ****         
 297:main.c        ****         if (restartScanning) {
 410              		.loc 1 297 0
 411 0022 114B     		ldr	r3, .L31
 412 0024 5B78     		ldrb	r3, [r3, #1]
 413 0026 002B     		cmp	r3, #0
 414 0028 05D0     		beq	.L27
 298:main.c        ****             restartScanning = FALSE;
 415              		.loc 1 298 0
 416 002a 0022     		movs	r2, #0
 417 002c 0E4B     		ldr	r3, .L31
 418 002e 5A70     		strb	r2, [r3, #1]
 299:main.c        ****             CyBle_GapcStartScan(CYBLE_SCANNING_FAST);
 419              		.loc 1 299 0
 420 0030 0020     		movs	r0, #0
 421 0032 FFF7FEFF 		bl	CyBle_GapcStartScan
 422              	.LVL27:
 423              	.L27:
 300:main.c        ****         }
 301:main.c        ****         
 302:main.c        ****         if (deviceConnected) {
 424              		.loc 1 302 0
 425 0036 0C4B     		ldr	r3, .L31
 426 0038 DB78     		ldrb	r3, [r3, #3]
 427 003a 002B     		cmp	r3, #0
 428 003c 0BD0     		beq	.L28
 303:main.c        ****             CyBle_GattcReadCharacteristicValue(connHandle, 0x000Eu);    /* read values from server 
 429              		.loc 1 303 0
 430 003e 0C4A     		ldr	r2, .L31+8
 431 0040 1378     		ldrb	r3, [r2]
 432 0042 5078     		ldrb	r0, [r2, #1]
 433 0044 0002     		lsls	r0, r0, #8
 434 0046 1843     		orrs	r0, r3
 435 0048 0E21     		movs	r1, #14
 436 004a FFF7FEFF 		bl	CyBle_GattcReadCharacteristicValue
 437              	.LVL28:
 304:main.c        ****             Red_LED_Write(HIGH);
ARM GAS  C:\Users\jon\AppData\Local\Temp\ccv77ksD.s 			page 14


 438              		.loc 1 304 0
 439 004e 0020     		movs	r0, #0
 440 0050 FFF7FEFF 		bl	Red_LED_Write
 441              	.LVL29:
 442 0054 02E0     		b	.L29
 443              	.L28:
 305:main.c        ****         } else {
 306:main.c        ****             Red_LED_Write(LOW);
 444              		.loc 1 306 0
 445 0056 0120     		movs	r0, #1
 446 0058 FFF7FEFF 		bl	Red_LED_Write
 447              	.LVL30:
 448              	.L29:
 307:main.c        ****         }
 308:main.c        ****        
 309:main.c        ****         Green_LED_Write(led_enable);  /* turn the LED on or off based on the value read from the se
 449              		.loc 1 309 0
 450 005c 054B     		ldr	r3, .L31+12
 451 005e 1878     		ldrb	r0, [r3]
 452 0060 FFF7FEFF 		bl	Green_LED_Write
 453              	.LVL31:
 310:main.c        ****         
 311:main.c        ****         //CyDelay(1000); /* update every second */
 312:main.c        ****         
 313:main.c        ****     }
 454              		.loc 1 313 0
 455 0064 CFE7     		b	.L30
 456              	.L32:
 457 0066 C046     		.align	2
 458              	.L31:
 459 0068 00000000 		.word	.LANCHOR0
 460 006c 00000000 		.word	connectPeriphDevice
 461 0070 00000000 		.word	connHandle
 462 0074 00000000 		.word	led_enable
 463              		.cfi_endproc
 464              	.LFE40:
 465              		.size	main, .-main
 466              		.comm	buf,200,4
 467              		.comm	led_enable,4,4
 468              		.comm	sensor_data,3,4
 469              		.global	restartScanning
 470              		.global	addedDevices
 471              		.global	peripheralFound
 472              		.comm	peripheralAddress,6,4
 473              		.comm	address_store,6,4
 474              		.global	deviceConnected
 475              		.comm	connHandle,2,4
 476              		.comm	connectPeriphDevice,7,4
 477              		.comm	list_of_devices,20,4
 478              		.bss
 479              		.set	.LANCHOR0,. + 0
 480              		.type	peripheralFound, %object
 481              		.size	peripheralFound, 1
 482              	peripheralFound:
 483 0000 00       		.space	1
 484              		.type	restartScanning, %object
 485              		.size	restartScanning, 1
ARM GAS  C:\Users\jon\AppData\Local\Temp\ccv77ksD.s 			page 15


 486              	restartScanning:
 487 0001 00       		.space	1
 488              		.type	addedDevices, %object
 489              		.size	addedDevices, 1
 490              	addedDevices:
 491 0002 00       		.space	1
 492              		.type	deviceConnected, %object
 493              		.size	deviceConnected, 1
 494              	deviceConnected:
 495 0003 00       		.space	1
 496              		.text
 497              	.Letext0:
 498              		.file 2 "Generated_Source\\PSoC4/cytypes.h"
 499              		.file 3 "Generated_Source\\PSoC4/BLE_1_Stack.h"
 500              		.file 4 "Generated_Source\\PSoC4/BLE_1_StackGap.h"
 501              		.file 5 "Generated_Source\\PSoC4/BLE_1_StackGatt.h"
 502              		.file 6 "Generated_Source\\PSoC4/BLE_1_StackGattClient.h"
 503              		.file 7 "Generated_Source\\PSoC4/BLE_1_eventHandler.h"
 504              		.file 8 "./main.h"
 505              		.file 9 "c:\\program files (x86)\\cypress\\psoc creator\\4.2\\psoc creator\\import\\gnu\\arm\\5.4.
 506              		.file 10 "Generated_Source\\PSoC4/BLE_1.h"
 507              		.file 11 "Generated_Source\\PSoC4/BLE_1_gatt.h"
 508              		.file 12 "Generated_Source\\PSoC4/Red_LED.h"
 509              		.file 13 "Generated_Source\\PSoC4/Green_LED.h"