ARM GAS  C:\Users\aliag\AppData\Local\Temp\ccm7VYAl.s 			page 1


   1              		.syntax unified
   2              		.cpu cortex-m0
   3              		.fpu softvfp
   4              		.eabi_attribute 20, 1
   5              		.eabi_attribute 21, 1
   6              		.eabi_attribute 23, 3
   7              		.eabi_attribute 24, 1
   8              		.eabi_attribute 25, 1
   9              		.eabi_attribute 26, 1
  10              		.eabi_attribute 30, 1
  11              		.eabi_attribute 34, 0
  12              		.eabi_attribute 18, 4
  13              		.thumb
  14              		.syntax unified
  15              		.file	"thermometer.c"
  16              		.text
  17              	.Ltext0:
  18              		.cfi_sections	.debug_frame
  19              		.section	.text.Initialize_1_wire,"ax",%progbits
  20              		.align	2
  21              		.global	Initialize_1_wire
  22              		.code	16
  23              		.thumb_func
  24              		.type	Initialize_1_wire, %function
  25              	Initialize_1_wire:
  26              	.LFB36:
  27              		.file 1 "thermometer.c"
   1:thermometer.c **** /* Adapted from project "PSoC4: Bit Banging 1 Wire Protocol (DS18B20 Thermometer)"
   2:thermometer.c ****  * by Vasanth R S (https://www.hackster.io/vsrs/psoc4-bit-banging-1-wire-protocol-ds18b20-thermomet
   3:thermometer.c ****  *
   4:thermometer.c ****  * EGR 304 Team 24
   5:thermometer.c ****  * Jonathan Bush
   6:thermometer.c ****  *
   7:thermometer.c ****  * Provides interface for reading temperature sensor.
   8:thermometer.c ****  */
   9:thermometer.c **** 
  10:thermometer.c **** #include "project.h"
  11:thermometer.c **** #include "stdio.h"
  12:thermometer.c **** 
  13:thermometer.c **** #define RST_TIME 480
  14:thermometer.c **** #define HALF_TIME_SLOT 30
  15:thermometer.c **** #define TIME_SLOT 60
  16:thermometer.c **** #define RCVRY_TIME 20
  17:thermometer.c **** #define WRITE_0_TIME 60
  18:thermometer.c **** #define WRITE_1_TIME 10
  19:thermometer.c **** #define READ_INIT_DLY 5
  20:thermometer.c **** #define READ_VALID_DLY 5
  21:thermometer.c **** 
  22:thermometer.c **** #define SKIP_ADDR_CMND 0xCC
  23:thermometer.c **** #define WRITE_SC_PAD   0x4E
  24:thermometer.c **** #define RESOL_12BIT 0x7F
  25:thermometer.c **** #define START_CONVERT 0x44
  26:thermometer.c **** #define READ_SC_PAD 0xBE
  27:thermometer.c **** #define SETUP_DLY 1000
  28:thermometer.c **** /*******************************************************************************
  29:thermometer.c ****     * Function Name: Initialize_1_wire
  30:thermometer.c ****     ****************************************************************************//**
ARM GAS  C:\Users\aliag\AppData\Local\Temp\ccm7VYAl.s 			page 2


  31:thermometer.c ****     *
  32:thermometer.c ****     * \initializes the 1 wire communication, Master pulls the channel low for 480us atleast.
  33:thermometer.c ****     * For which the slaves will reply with a 0, within one time slot.
  34:thermometer.c ****     *
  35:thermometer.c ****     * <b>Note</b> Done initially to find the presence of devices in the network
  36:thermometer.c ****     *
  37:thermometer.c ****     *
  38:thermometer.c ****     * \param mode
  39:thermometer.c ****     * no parameter
  40:thermometer.c ****     *
  41:thermometer.c ****     * \return
  42:thermometer.c ****     *  returns the status.
  43:thermometer.c ****     *
  44:thermometer.c **** *********************************************************************************************/
  45:thermometer.c **** 
  46:thermometer.c **** uint8 Initialize_1_wire()
  47:thermometer.c **** {
  28              		.loc 1 47 0
  29              		.cfi_startproc
  30              		@ args = 0, pretend = 0, frame = 0
  31              		@ frame_needed = 0, uses_anonymous_args = 0
  32 0000 10B5     		push	{r4, lr}
  33              		.cfi_def_cfa_offset 8
  34              		.cfi_offset 4, -8
  35              		.cfi_offset 14, -4
  48:thermometer.c **** uint8 status;
  49:thermometer.c **** Wire1_Write(0);
  36              		.loc 1 49 0
  37 0002 0020     		movs	r0, #0
  38 0004 FFF7FEFF 		bl	Wire1_Write
  39              	.LVL0:
  50:thermometer.c **** 
  51:thermometer.c **** /*  Minimum reset time for 1-Wire Protocol  */
  52:thermometer.c **** CyDelayUs(RST_TIME);
  40              		.loc 1 52 0
  41 0008 F020     		movs	r0, #240
  42 000a 4000     		lsls	r0, r0, #1
  43 000c FFF7FEFF 		bl	CyDelayUs
  44              	.LVL1:
  53:thermometer.c **** Wire1_Write(1);
  45              		.loc 1 53 0
  46 0010 0120     		movs	r0, #1
  47 0012 FFF7FEFF 		bl	Wire1_Write
  48              	.LVL2:
  54:thermometer.c **** /* Slave should respond within one time slot(60us) */
  55:thermometer.c **** CyDelayUs(HALF_TIME_SLOT);
  49              		.loc 1 55 0
  50 0016 1E20     		movs	r0, #30
  51 0018 FFF7FEFF 		bl	CyDelayUs
  52              	.LVL3:
  56:thermometer.c **** status = Wire1_Read();
  53              		.loc 1 56 0
  54 001c FFF7FEFF 		bl	Wire1_Read
  55              	.LVL4:
  57:thermometer.c **** return status;
  58:thermometer.c **** }
  56              		.loc 1 58 0
ARM GAS  C:\Users\aliag\AppData\Local\Temp\ccm7VYAl.s 			page 3


  57              		@ sp needed
  58 0020 10BD     		pop	{r4, pc}
  59              		.cfi_endproc
  60              	.LFE36:
  61              		.size	Initialize_1_wire, .-Initialize_1_wire
  62 0022 C046     		.section	.text.Write_bit_1_wire,"ax",%progbits
  63              		.align	2
  64              		.global	Write_bit_1_wire
  65              		.code	16
  66              		.thumb_func
  67              		.type	Write_bit_1_wire, %function
  68              	Write_bit_1_wire:
  69              	.LFB37:
  59:thermometer.c **** 
  60:thermometer.c **** /*******************************************************************************
  61:thermometer.c ****     * Function Name: Write_bit_1_wire
  62:thermometer.c ****     ****************************************************************************//**
  63:thermometer.c ****     *
  64:thermometer.c ****     * \Master Writes one bit of data to the slave
  65:thermometer.c ****     * 
  66:thermometer.c ****     * <b>Note</b> All master writes are done based on this function
  67:thermometer.c ****     *
  68:thermometer.c ****     *
  69:thermometer.c ****     * \param mode
  70:thermometer.c ****     * 1 bit write data
  71:thermometer.c ****     *
  72:thermometer.c ****     * \return
  73:thermometer.c ****     *  void function
  74:thermometer.c ****     *
  75:thermometer.c **** *********************************************************************************************/
  76:thermometer.c **** void Write_bit_1_wire(uint8 value)
  77:thermometer.c **** {   
  70              		.loc 1 77 0
  71              		.cfi_startproc
  72              		@ args = 0, pretend = 0, frame = 0
  73              		@ frame_needed = 0, uses_anonymous_args = 0
  74              	.LVL5:
  75 0000 10B5     		push	{r4, lr}
  76              		.cfi_def_cfa_offset 8
  77              		.cfi_offset 4, -8
  78              		.cfi_offset 14, -4
  79 0002 0400     		movs	r4, r0
  78:thermometer.c ****     /* Minimum recovery time 1us between write steps in ncessary, 20us is used */
  79:thermometer.c ****     CyDelayUs(RCVRY_TIME);
  80              		.loc 1 79 0
  81 0004 1420     		movs	r0, #20
  82              	.LVL6:
  83 0006 FFF7FEFF 		bl	CyDelayUs
  84              	.LVL7:
  80:thermometer.c ****     /* Write is initiated from this step*/
  81:thermometer.c ****     Wire1_Write(0); 
  85              		.loc 1 81 0
  86 000a 0020     		movs	r0, #0
  87 000c FFF7FEFF 		bl	Wire1_Write
  88              	.LVL8:
  82:thermometer.c ****     
  83:thermometer.c ****     if(value==0)
ARM GAS  C:\Users\aliag\AppData\Local\Temp\ccm7VYAl.s 			page 4


  89              		.loc 1 83 0
  90 0010 002C     		cmp	r4, #0
  91 0012 03D1     		bne	.L3
  84:thermometer.c ****     {
  85:thermometer.c ****         /* Minimum 60us for logic0 */
  86:thermometer.c ****         CyDelayUs(WRITE_0_TIME);
  92              		.loc 1 86 0
  93 0014 3C20     		movs	r0, #60
  94 0016 FFF7FEFF 		bl	CyDelayUs
  95              	.LVL9:
  96 001a 02E0     		b	.L4
  97              	.L3:
  87:thermometer.c ****     }
  88:thermometer.c ****     else
  89:thermometer.c ****     {
  90:thermometer.c ****         /* Release to 1 before 15us for logic1 */
  91:thermometer.c ****         CyDelayUs(WRITE_1_TIME);
  98              		.loc 1 91 0
  99 001c 0A20     		movs	r0, #10
 100 001e FFF7FEFF 		bl	CyDelayUs
 101              	.LVL10:
 102              	.L4:
  92:thermometer.c ****     }
  93:thermometer.c ****     Wire1_Write(1); 
 103              		.loc 1 93 0
 104 0022 0120     		movs	r0, #1
 105 0024 FFF7FEFF 		bl	Wire1_Write
 106              	.LVL11:
  94:thermometer.c **** }
 107              		.loc 1 94 0
 108              		@ sp needed
 109 0028 10BD     		pop	{r4, pc}
 110              		.cfi_endproc
 111              	.LFE37:
 112              		.size	Write_bit_1_wire, .-Write_bit_1_wire
 113 002a C046     		.section	.text.Read_bit_1_wire,"ax",%progbits
 114              		.align	2
 115              		.global	Read_bit_1_wire
 116              		.code	16
 117              		.thumb_func
 118              		.type	Read_bit_1_wire, %function
 119              	Read_bit_1_wire:
 120              	.LFB38:
  95:thermometer.c **** 
  96:thermometer.c **** /*******************************************************************************
  97:thermometer.c ****     * Function Name: Read_bit_1_wire
  98:thermometer.c ****     ****************************************************************************//**
  99:thermometer.c ****     *
 100:thermometer.c ****     * \Master Reads one bit of data from slave
 101:thermometer.c ****     * 
 102:thermometer.c ****     * <b>Note</b> All master read actions are done based on this function. Master initiates read by
 103:thermometer.c ****     * Data should be read before 15us
 104:thermometer.c ****     *
 105:thermometer.c ****     * \param mode
 106:thermometer.c ****     * no parameter
 107:thermometer.c ****     *
 108:thermometer.c ****     * \return
ARM GAS  C:\Users\aliag\AppData\Local\Temp\ccm7VYAl.s 			page 5


 109:thermometer.c ****     *  1 bit data from slave
 110:thermometer.c ****     *
 111:thermometer.c **** *********************************************************************************************/
 112:thermometer.c **** uint8 Read_bit_1_wire()
 113:thermometer.c **** {
 121              		.loc 1 113 0
 122              		.cfi_startproc
 123              		@ args = 0, pretend = 0, frame = 0
 124              		@ frame_needed = 0, uses_anonymous_args = 0
 125 0000 10B5     		push	{r4, lr}
 126              		.cfi_def_cfa_offset 8
 127              		.cfi_offset 4, -8
 128              		.cfi_offset 14, -4
 114:thermometer.c ****     /* Minimum recovery time 1us */
 115:thermometer.c ****     CyDelayUs(RCVRY_TIME);
 129              		.loc 1 115 0
 130 0002 1420     		movs	r0, #20
 131 0004 FFF7FEFF 		bl	CyDelayUs
 132              	.LVL12:
 116:thermometer.c ****     /* Initiate read by pulling line low */
 117:thermometer.c ****     Wire1_Write(0);
 133              		.loc 1 117 0
 134 0008 0020     		movs	r0, #0
 135 000a FFF7FEFF 		bl	Wire1_Write
 136              	.LVL13:
 118:thermometer.c ****     /* Minimum time 1us, to initiate delay */
 119:thermometer.c ****     CyDelayUs(READ_INIT_DLY); 
 137              		.loc 1 119 0
 138 000e 0520     		movs	r0, #5
 139 0010 FFF7FEFF 		bl	CyDelayUs
 140              	.LVL14:
 120:thermometer.c ****     Wire1_Write(1);
 141              		.loc 1 120 0
 142 0014 0120     		movs	r0, #1
 143 0016 FFF7FEFF 		bl	Wire1_Write
 144              	.LVL15:
 121:thermometer.c ****     /* Data valid before 15us, should be sampled before that*/
 122:thermometer.c ****     CyDelayUs(READ_VALID_DLY); 
 145              		.loc 1 122 0
 146 001a 0520     		movs	r0, #5
 147 001c FFF7FEFF 		bl	CyDelayUs
 148              	.LVL16:
 123:thermometer.c ****     return(Wire1_Read());
 149              		.loc 1 123 0
 150 0020 FFF7FEFF 		bl	Wire1_Read
 151              	.LVL17:
 124:thermometer.c **** }
 152              		.loc 1 124 0
 153              		@ sp needed
 154 0024 10BD     		pop	{r4, pc}
 155              		.cfi_endproc
 156              	.LFE38:
 157              		.size	Read_bit_1_wire, .-Read_bit_1_wire
 158 0026 C046     		.section	.text.Write8_1_wire,"ax",%progbits
 159              		.align	2
 160              		.global	Write8_1_wire
 161              		.code	16
ARM GAS  C:\Users\aliag\AppData\Local\Temp\ccm7VYAl.s 			page 6


 162              		.thumb_func
 163              		.type	Write8_1_wire, %function
 164              	Write8_1_wire:
 165              	.LFB39:
 125:thermometer.c **** 
 126:thermometer.c **** /*******************************************************************************
 127:thermometer.c ****     * Function Name: Write8_1_wire
 128:thermometer.c ****     ****************************************************************************//**
 129:thermometer.c ****     *
 130:thermometer.c ****     * \Master Writes one byte of data to slave
 131:thermometer.c ****     * 
 132:thermometer.c ****     * <b>Note</b> Write 1 byte of data using bit write function 
 133:thermometer.c ****     * 
 134:thermometer.c ****     *
 135:thermometer.c ****     * \param mode
 136:thermometer.c ****     * Write data
 137:thermometer.c ****     *
 138:thermometer.c ****     * \return
 139:thermometer.c ****     *  void function
 140:thermometer.c ****     *
 141:thermometer.c **** *********************************************************************************************/
 142:thermometer.c **** void Write8_1_wire(uint8 payload) 
 143:thermometer.c ****     {
 166              		.loc 1 143 0
 167              		.cfi_startproc
 168              		@ args = 0, pretend = 0, frame = 0
 169              		@ frame_needed = 0, uses_anonymous_args = 0
 170              	.LVL18:
 171 0000 70B5     		push	{r4, r5, r6, lr}
 172              		.cfi_def_cfa_offset 16
 173              		.cfi_offset 4, -16
 174              		.cfi_offset 5, -12
 175              		.cfi_offset 6, -8
 176              		.cfi_offset 14, -4
 177 0002 0500     		movs	r5, r0
 178              	.LVL19:
 144:thermometer.c **** 	    uint8 BitPayload,  shiftcount;
 145:thermometer.c **** 	    for (shiftcount=0; shiftcount<=7;shiftcount++) 
 179              		.loc 1 145 0
 180 0004 0024     		movs	r4, #0
 181 0006 07E0     		b	.L7
 182              	.LVL20:
 183              	.L8:
 146:thermometer.c ****         {
 147:thermometer.c ****             BitPayload = (payload >> shiftcount) & 0x01;
 184              		.loc 1 147 0 discriminator 3
 185 0008 2B00     		movs	r3, r5
 186 000a 2341     		asrs	r3, r3, r4
 187 000c 0120     		movs	r0, #1
 188 000e 1840     		ands	r0, r3
 189              	.LVL21:
 148:thermometer.c ****             Write_bit_1_wire(BitPayload);
 190              		.loc 1 148 0 discriminator 3
 191 0010 FFF7FEFF 		bl	Write_bit_1_wire
 192              	.LVL22:
 145:thermometer.c ****         {
 193              		.loc 1 145 0 discriminator 3
ARM GAS  C:\Users\aliag\AppData\Local\Temp\ccm7VYAl.s 			page 7


 194 0014 0134     		adds	r4, r4, #1
 195              	.LVL23:
 196 0016 E4B2     		uxtb	r4, r4
 197              	.LVL24:
 198              	.L7:
 145:thermometer.c ****         {
 199              		.loc 1 145 0 is_stmt 0 discriminator 1
 200 0018 072C     		cmp	r4, #7
 201 001a F5D9     		bls	.L8
 149:thermometer.c ****         }
 150:thermometer.c ****     }  
 202              		.loc 1 150 0 is_stmt 1
 203              		@ sp needed
 204              	.LVL25:
 205 001c 70BD     		pop	{r4, r5, r6, pc}
 206              		.cfi_endproc
 207              	.LFE39:
 208              		.size	Write8_1_wire, .-Write8_1_wire
 209 001e C046     		.section	.text.Read8_1_wire,"ax",%progbits
 210              		.align	2
 211              		.global	Read8_1_wire
 212              		.code	16
 213              		.thumb_func
 214              		.type	Read8_1_wire, %function
 215              	Read8_1_wire:
 216              	.LFB40:
 151:thermometer.c **** 
 152:thermometer.c **** /*******************************************************************************
 153:thermometer.c ****     * Function Name: Read8_1_wire
 154:thermometer.c ****     ****************************************************************************//**
 155:thermometer.c ****     *
 156:thermometer.c ****     * \Master Reads one byte data from slave
 157:thermometer.c ****     * 
 158:thermometer.c ****     * <b>Note</b> Reads 1 byte of data using bit read function 
 159:thermometer.c ****     * 
 160:thermometer.c ****     *
 161:thermometer.c ****     * \param mode
 162:thermometer.c ****     * no parameter
 163:thermometer.c ****     *
 164:thermometer.c ****     * \return
 165:thermometer.c ****     *  1 byte read data
 166:thermometer.c ****     *
 167:thermometer.c **** *********************************************************************************************/
 168:thermometer.c **** uint8 Read8_1_wire() //Read 8 bits "clocked" out by the slave. 
 169:thermometer.c **** {
 217              		.loc 1 169 0
 218              		.cfi_startproc
 219              		@ args = 0, pretend = 0, frame = 0
 220              		@ frame_needed = 0, uses_anonymous_args = 0
 221 0000 70B5     		push	{r4, r5, r6, lr}
 222              		.cfi_def_cfa_offset 16
 223              		.cfi_offset 4, -16
 224              		.cfi_offset 5, -12
 225              		.cfi_offset 6, -8
 226              		.cfi_offset 14, -4
 227              	.LVL26:
 170:thermometer.c **** 	uint8 IncomingByte=0, shiftcount=0 ;
ARM GAS  C:\Users\aliag\AppData\Local\Temp\ccm7VYAl.s 			page 8


 171:thermometer.c **** 	for (shiftcount=0; shiftcount<=7; shiftcount++) 
 228              		.loc 1 171 0
 229 0002 0024     		movs	r4, #0
 170:thermometer.c **** 	uint8 IncomingByte=0, shiftcount=0 ;
 230              		.loc 1 170 0
 231 0004 0025     		movs	r5, #0
 232              		.loc 1 171 0
 233 0006 06E0     		b	.L10
 234              	.LVL27:
 235              	.L11:
 172:thermometer.c ****     {
 173:thermometer.c ****        IncomingByte |= (Read_bit_1_wire())<<shiftcount;
 236              		.loc 1 173 0 discriminator 3
 237 0008 FFF7FEFF 		bl	Read_bit_1_wire
 238              	.LVL28:
 239 000c A040     		lsls	r0, r0, r4
 240 000e 0543     		orrs	r5, r0
 241              	.LVL29:
 242 0010 EDB2     		uxtb	r5, r5
 243              	.LVL30:
 171:thermometer.c ****     {
 244              		.loc 1 171 0 discriminator 3
 245 0012 0134     		adds	r4, r4, #1
 246              	.LVL31:
 247 0014 E4B2     		uxtb	r4, r4
 248              	.LVL32:
 249              	.L10:
 171:thermometer.c ****     {
 250              		.loc 1 171 0 is_stmt 0 discriminator 1
 251 0016 072C     		cmp	r4, #7
 252 0018 F6D9     		bls	.L11
 174:thermometer.c ****     }
 175:thermometer.c ****     return(IncomingByte);
 176:thermometer.c **** }
 253              		.loc 1 176 0 is_stmt 1
 254 001a 2800     		movs	r0, r5
 255              		@ sp needed
 256              	.LVL33:
 257              	.LVL34:
 258 001c 70BD     		pop	{r4, r5, r6, pc}
 259              		.cfi_endproc
 260              	.LFE40:
 261              		.size	Read8_1_wire, .-Read8_1_wire
 262              		.global	__aeabi_fadd
 263              		.global	__aeabi_i2f
 264              		.global	__aeabi_fsub
 265 001e C046     		.section	.text.measure_celsius,"ax",%progbits
 266              		.align	2
 267              		.global	measure_celsius
 268              		.code	16
 269              		.thumb_func
 270              		.type	measure_celsius, %function
 271              	measure_celsius:
 272              	.LFB41:
 177:thermometer.c **** 
 178:thermometer.c **** /*******************************************************************************
 179:thermometer.c ****     * Function Name:  measure_celsius
ARM GAS  C:\Users\aliag\AppData\Local\Temp\ccm7VYAl.s 			page 9


 180:thermometer.c ****     ****************************************************************************//**
 181:thermometer.c ****     *
 182:thermometer.c ****     * \Converts the 12 bit sensor data to celcius
 183:thermometer.c ****     * 
 184:thermometer.c ****     * <b>Note</b>  
 185:thermometer.c ****     * Converts 2 byte sensor scratch pad data into accurate float data. 
 186:thermometer.c ****     *
 187:thermometer.c ****     * \param mode
 188:thermometer.c ****     * 2 byte sensor data
 189:thermometer.c ****     *
 190:thermometer.c ****     * \return
 191:thermometer.c ****     *  temperature value in celcius float format
 192:thermometer.c ****     *
 193:thermometer.c **** *********************************************************************************************/
 194:thermometer.c **** float measure_celsius(uint16 temp)
 195:thermometer.c **** {
 273              		.loc 1 195 0
 274              		.cfi_startproc
 275              		@ args = 0, pretend = 0, frame = 0
 276              		@ frame_needed = 0, uses_anonymous_args = 0
 277              	.LVL35:
 278 0000 70B5     		push	{r4, r5, r6, lr}
 279              		.cfi_def_cfa_offset 16
 280              		.cfi_offset 4, -16
 281              		.cfi_offset 5, -12
 282              		.cfi_offset 6, -8
 283              		.cfi_offset 14, -4
 284 0002 0400     		movs	r4, r0
 285              	.LVL36:
 196:thermometer.c ****     
 197:thermometer.c **** float temp_c = 0;	
 198:thermometer.c ****     
 199:thermometer.c **** if (temp >= 0x800) //temperture is negative 
 286              		.loc 1 199 0
 287 0004 254B     		ldr	r3, .L23
 288 0006 9842     		cmp	r0, r3
 289 0008 2AD9     		bls	.L13
 200:thermometer.c **** {	
 201:thermometer.c **** 
 202:thermometer.c **** //calculate the fractional part 
 203:thermometer.c **** if(temp & 0x0001) temp_c += 0.06250; 
 290              		.loc 1 203 0
 291 000a C307     		lsls	r3, r0, #31
 292 000c 01D4     		bmi	.L22
 197:thermometer.c ****     
 293              		.loc 1 197 0
 294 000e 0025     		movs	r5, #0
 295 0010 01E0     		b	.L14
 296              	.L22:
 297              		.loc 1 203 0
 298 0012 F625     		movs	r5, #246
 299 0014 AD05     		lsls	r5, r5, #22
 300              	.L14:
 301              	.LVL37:
 204:thermometer.c **** if(temp & 0x0002) temp_c += 0.12500; 
 302              		.loc 1 204 0
 303 0016 A307     		lsls	r3, r4, #30
ARM GAS  C:\Users\aliag\AppData\Local\Temp\ccm7VYAl.s 			page 10


 304 0018 05D5     		bpl	.L15
 305              		.loc 1 204 0 is_stmt 0 discriminator 1
 306 001a F821     		movs	r1, #248
 307 001c 8905     		lsls	r1, r1, #22
 308 001e 281C     		adds	r0, r5, #0
 309              	.LVL38:
 310 0020 FFF7FEFF 		bl	__aeabi_fadd
 311              	.LVL39:
 312 0024 051C     		adds	r5, r0, #0
 313              	.LVL40:
 314              	.L15:
 205:thermometer.c **** if(temp & 0x0004) temp_c += 0.25000; 
 315              		.loc 1 205 0 is_stmt 1
 316 0026 6307     		lsls	r3, r4, #29
 317 0028 05D5     		bpl	.L16
 318              		.loc 1 205 0 is_stmt 0 discriminator 1
 319 002a FA21     		movs	r1, #250
 320 002c 8905     		lsls	r1, r1, #22
 321 002e 281C     		adds	r0, r5, #0
 322 0030 FFF7FEFF 		bl	__aeabi_fadd
 323              	.LVL41:
 324 0034 051C     		adds	r5, r0, #0
 325              	.LVL42:
 326              	.L16:
 206:thermometer.c **** if(temp & 0x0008) temp_c += 0.50000; 
 327              		.loc 1 206 0 is_stmt 1
 328 0036 2307     		lsls	r3, r4, #28
 329 0038 05D5     		bpl	.L17
 330              		.loc 1 206 0 is_stmt 0 discriminator 1
 331 003a FC21     		movs	r1, #252
 332 003c 8905     		lsls	r1, r1, #22
 333 003e 281C     		adds	r0, r5, #0
 334 0040 FFF7FEFF 		bl	__aeabi_fadd
 335              	.LVL43:
 336 0044 051C     		adds	r5, r0, #0
 337              	.LVL44:
 338              	.L17:
 207:thermometer.c **** 
 208:thermometer.c **** //calculate the whole number part 
 209:thermometer.c **** temp = (temp >> 4) & 0x00FF; 
 339              		.loc 1 209 0 is_stmt 1
 340 0046 2409     		lsrs	r4, r4, #4
 341 0048 FF20     		movs	r0, #255
 342 004a 0440     		ands	r4, r0
 343              	.LVL45:
 210:thermometer.c **** temp = temp - 0x0001; //subtract 1 
 344              		.loc 1 210 0
 345 004c 013C     		subs	r4, r4, #1
 346              	.LVL46:
 347 004e A4B2     		uxth	r4, r4
 348              	.LVL47:
 211:thermometer.c **** temp = ~temp; //ones compliment 
 212:thermometer.c **** temp_c = temp_c - (float)(temp & 0xFF); 
 349              		.loc 1 212 0
 350 0050 A043     		bics	r0, r4
 351 0052 FFF7FEFF 		bl	__aeabi_i2f
 352              	.LVL48:
ARM GAS  C:\Users\aliag\AppData\Local\Temp\ccm7VYAl.s 			page 11


 353 0056 011C     		adds	r1, r0, #0
 354 0058 281C     		adds	r0, r5, #0
 355 005a FFF7FEFF 		bl	__aeabi_fsub
 356              	.LVL49:
 357 005e 1CE0     		b	.L18
 358              	.LVL50:
 359              	.L13:
 213:thermometer.c **** } 
 214:thermometer.c **** else //temperture is positive 
 215:thermometer.c **** { 
 216:thermometer.c **** temp_c = 0; 
 217:thermometer.c **** //calculate the whole number part 
 218:thermometer.c **** temp_c = (temp >> 4) & 0x00FF; 
 360              		.loc 1 218 0
 361 0060 0309     		lsrs	r3, r0, #4
 362 0062 FF20     		movs	r0, #255
 363              	.LVL51:
 364 0064 1840     		ands	r0, r3
 365 0066 FFF7FEFF 		bl	__aeabi_i2f
 366              	.LVL52:
 219:thermometer.c **** //calculate the fractional part 
 220:thermometer.c **** if(temp & 0x0001) temp_c = temp_c + 0.06250; 
 367              		.loc 1 220 0
 368 006a E307     		lsls	r3, r4, #31
 369 006c 03D5     		bpl	.L19
 370              		.loc 1 220 0 is_stmt 0 discriminator 1
 371 006e F621     		movs	r1, #246
 372 0070 8905     		lsls	r1, r1, #22
 373 0072 FFF7FEFF 		bl	__aeabi_fadd
 374              	.LVL53:
 375              	.L19:
 221:thermometer.c **** if(temp & 0x0002) temp_c = temp_c + 0.12500; 
 376              		.loc 1 221 0 is_stmt 1
 377 0076 A307     		lsls	r3, r4, #30
 378 0078 03D5     		bpl	.L20
 379              		.loc 1 221 0 is_stmt 0 discriminator 1
 380 007a F821     		movs	r1, #248
 381 007c 8905     		lsls	r1, r1, #22
 382 007e FFF7FEFF 		bl	__aeabi_fadd
 383              	.LVL54:
 384              	.L20:
 222:thermometer.c **** if(temp & 0x0004) temp_c = temp_c + 0.25000; 
 385              		.loc 1 222 0 is_stmt 1
 386 0082 6307     		lsls	r3, r4, #29
 387 0084 03D5     		bpl	.L21
 388              		.loc 1 222 0 is_stmt 0 discriminator 1
 389 0086 FA21     		movs	r1, #250
 390 0088 8905     		lsls	r1, r1, #22
 391 008a FFF7FEFF 		bl	__aeabi_fadd
 392              	.LVL55:
 393              	.L21:
 223:thermometer.c **** if(temp & 0x0008) temp_c = temp_c + 0.50000; 
 394              		.loc 1 223 0 is_stmt 1
 395 008e 2307     		lsls	r3, r4, #28
 396 0090 03D5     		bpl	.L18
 397              		.loc 1 223 0 is_stmt 0 discriminator 1
 398 0092 FC21     		movs	r1, #252
ARM GAS  C:\Users\aliag\AppData\Local\Temp\ccm7VYAl.s 			page 12


 399 0094 8905     		lsls	r1, r1, #22
 400 0096 FFF7FEFF 		bl	__aeabi_fadd
 401              	.LVL56:
 402              	.L18:
 224:thermometer.c **** }
 225:thermometer.c **** return temp_c;
 226:thermometer.c **** }
 403              		.loc 1 226 0 is_stmt 1
 404              		@ sp needed
 405 009a 70BD     		pop	{r4, r5, r6, pc}
 406              	.L24:
 407              		.align	2
 408              	.L23:
 409 009c FF070000 		.word	2047
 410              		.cfi_endproc
 411              	.LFE41:
 412              		.size	measure_celsius, .-measure_celsius
 413              		.section	.text.read_temp,"ax",%progbits
 414              		.align	2
 415              		.global	read_temp
 416              		.code	16
 417              		.thumb_func
 418              		.type	read_temp, %function
 419              	read_temp:
 420              	.LFB42:
 227:thermometer.c **** 
 228:thermometer.c **** float read_temp() {
 421              		.loc 1 228 0
 422              		.cfi_startproc
 423              		@ args = 0, pretend = 0, frame = 16
 424              		@ frame_needed = 0, uses_anonymous_args = 0
 425 0000 10B5     		push	{r4, lr}
 426              		.cfi_def_cfa_offset 8
 427              		.cfi_offset 4, -8
 428              		.cfi_offset 14, -4
 429 0002 84B0     		sub	sp, sp, #16
 430              		.cfi_def_cfa_offset 24
 229:thermometer.c ****     uint8 scratchpad[9];
 230:thermometer.c ****     uint16 tempr;
 231:thermometer.c ****     float temp_cel;
 232:thermometer.c ****     
 233:thermometer.c ****     Initialize_1_wire();
 431              		.loc 1 233 0
 432 0004 FFF7FEFF 		bl	Initialize_1_wire
 433              	.LVL57:
 234:thermometer.c **** 
 235:thermometer.c ****     CyDelay(SETUP_DLY);
 434              		.loc 1 235 0
 435 0008 FA20     		movs	r0, #250
 436 000a 8000     		lsls	r0, r0, #2
 437 000c FFF7FEFF 		bl	CyDelay
 438              	.LVL58:
 236:thermometer.c **** 
 237:thermometer.c ****     /*Skip address check command */
 238:thermometer.c ****      Write8_1_wire(SKIP_ADDR_CMND); 
 439              		.loc 1 238 0
 440 0010 CC20     		movs	r0, #204
ARM GAS  C:\Users\aliag\AppData\Local\Temp\ccm7VYAl.s 			page 13


 441 0012 FFF7FEFF 		bl	Write8_1_wire
 442              	.LVL59:
 239:thermometer.c ****     /* Start Convert*/
 240:thermometer.c ****     Write8_1_wire(START_CONVERT);
 443              		.loc 1 240 0
 444 0016 4420     		movs	r0, #68
 445 0018 FFF7FEFF 		bl	Write8_1_wire
 446              	.LVL60:
 447              	.L26:
 241:thermometer.c ****     
 242:thermometer.c ****     /* Wait until conversion completes */
 243:thermometer.c ****     while(Read_bit_1_wire()==0);
 448              		.loc 1 243 0 discriminator 1
 449 001c FFF7FEFF 		bl	Read_bit_1_wire
 450              	.LVL61:
 451 0020 0028     		cmp	r0, #0
 452 0022 FBD0     		beq	.L26
 244:thermometer.c ****     
 245:thermometer.c ****     Initialize_1_wire();
 453              		.loc 1 245 0
 454 0024 FFF7FEFF 		bl	Initialize_1_wire
 455              	.LVL62:
 246:thermometer.c **** 
 247:thermometer.c ****     CyDelay(SETUP_DLY);
 456              		.loc 1 247 0
 457 0028 FA20     		movs	r0, #250
 458 002a 8000     		lsls	r0, r0, #2
 459 002c FFF7FEFF 		bl	CyDelay
 460              	.LVL63:
 248:thermometer.c **** 
 249:thermometer.c ****     /*Skip address check command */
 250:thermometer.c ****     Write8_1_wire(SKIP_ADDR_CMND);
 461              		.loc 1 250 0
 462 0030 CC20     		movs	r0, #204
 463 0032 FFF7FEFF 		bl	Write8_1_wire
 464              	.LVL64:
 251:thermometer.c ****     /*Read Scratch Pad command*/
 252:thermometer.c ****     Write8_1_wire(READ_SC_PAD);
 465              		.loc 1 252 0
 466 0036 BE20     		movs	r0, #190
 467 0038 FFF7FEFF 		bl	Write8_1_wire
 468              	.LVL65:
 469              	.LBB2:
 253:thermometer.c ****     
 254:thermometer.c ****     /*Copy the scratpad from slave*/
 255:thermometer.c ****     for(int i=0;i<9;i++)
 470              		.loc 1 255 0
 471 003c 0024     		movs	r4, #0
 472 003e 04E0     		b	.L27
 473              	.LVL66:
 474              	.L28:
 256:thermometer.c ****     {
 257:thermometer.c ****         scratchpad[i]=Read8_1_wire();
 475              		.loc 1 257 0 discriminator 3
 476 0040 FFF7FEFF 		bl	Read8_1_wire
 477              	.LVL67:
 478 0044 01AB     		add	r3, sp, #4
ARM GAS  C:\Users\aliag\AppData\Local\Temp\ccm7VYAl.s 			page 14


 479 0046 1855     		strb	r0, [r3, r4]
 255:thermometer.c ****     {
 480              		.loc 1 255 0 discriminator 3
 481 0048 0134     		adds	r4, r4, #1
 482              	.LVL68:
 483              	.L27:
 255:thermometer.c ****     {
 484              		.loc 1 255 0 is_stmt 0 discriminator 1
 485 004a 082C     		cmp	r4, #8
 486 004c F8DD     		ble	.L28
 487              	.LBE2:
 258:thermometer.c ****     }
 259:thermometer.c ****     
 260:thermometer.c ****     
 261:thermometer.c ****     /* Combine the result to 16 bit register */
 262:thermometer.c ****     tempr=(scratchpad[1]<<8)+scratchpad[0];
 488              		.loc 1 262 0 is_stmt 1
 489 004e 01AB     		add	r3, sp, #4
 490 0050 5878     		ldrb	r0, [r3, #1]
 491 0052 1B78     		ldrb	r3, [r3]
 492 0054 0002     		lsls	r0, r0, #8
 493 0056 C018     		adds	r0, r0, r3
 494 0058 80B2     		uxth	r0, r0
 495              	.LVL69:
 263:thermometer.c **** 
 264:thermometer.c ****     temp_cel= measure_celsius(tempr);
 496              		.loc 1 264 0
 497 005a FFF7FEFF 		bl	measure_celsius
 498              	.LVL70:
 265:thermometer.c ****     
 266:thermometer.c ****     return temp_cel;
 267:thermometer.c **** }
 499              		.loc 1 267 0
 500 005e 04B0     		add	sp, sp, #16
 501              		@ sp needed
 502              	.LVL71:
 503 0060 10BD     		pop	{r4, pc}
 504              		.cfi_endproc
 505              	.LFE42:
 506              		.size	read_temp, .-read_temp
 507 0062 C046     		.text
 508              	.Letext0:
 509              		.file 2 "Generated_Source\\PSoC4/cytypes.h"
 510              		.file 3 "Generated_Source\\PSoC4/Wire1.h"
 511              		.file 4 "Generated_Source\\PSoC4/CyLib.h"